

Microchip MPLAB XC8 Assembler V2.31 build 20201012212115 
                                                                                               Wed Mar 10 22:02:10 2021

Microchip MPLAB XC8 C Compiler v2.31 (Free license) build 20201012212115 Og1 
     1                           	processor	16F887
     2                           	pagewidth 120
     3                           	opt	flic
     4                           	psect	cinit,global,class=CODE,merge=1,delta=2
     5                           	psect	bssBANK0,global,class=BANK0,space=1,delta=1,noexec
     6                           	psect	cstackCOMMON,global,class=COMMON,space=1,delta=1,noexec
     7                           	psect	cstackBANK0,global,class=BANK0,space=1,delta=1,noexec
     8                           	psect	maintext,global,class=CODE,split=1,delta=2
     9                           	psect	text1,local,class=CODE,merge=1,delta=2
    10                           	psect	text2,local,class=CODE,merge=1,delta=2
    11                           	psect	text3,local,class=CODE,merge=1,delta=2,group=1
    12                           	psect	text4,local,class=CODE,merge=1,delta=2,group=1
    13                           	psect	text5,local,class=CODE,merge=1,delta=2
    14                           	psect	text6,local,class=CODE,merge=1,delta=2
    15                           	psect	text7,local,class=CODE,merge=1,delta=2
    16                           	psect	text8,local,class=CODE,merge=1,delta=2
    17                           	psect	text9,local,class=CODE,merge=1,delta=2
    18                           	psect	text10,local,class=CODE,merge=1,delta=2
    19                           	psect	text11,local,class=CODE,merge=1,delta=2,group=1
    20                           	psect	text12,local,class=CODE,merge=1,delta=2
    21                           	psect	text13,local,class=CODE,merge=1,delta=2
    22                           	psect	text14,local,class=CODE,merge=1,delta=2
    23                           	psect	text15,local,class=CODE,merge=1,delta=2
    24                           	psect	text16,local,class=CODE,merge=1,delta=2
    25                           	psect	text17,local,class=CODE,merge=1,delta=2
    26                           	psect	text18,local,class=CODE,merge=1,delta=2
    27                           	psect	text19,local,class=CODE,merge=1,delta=2
    28                           	psect	intentry,global,class=CODE,delta=2
    29                           	psect	text20,local,class=CODE,merge=1,delta=2
    30                           	psect	config,global,abs,ovrld,class=CONFIG,space=4,delta=2,noexec
    31                           	dabs	1,0x7E,2
    32  0000                     
    33                           ; Version 2.20
    34                           ; Generated 12/02/2020 GMT
    35                           ; 
    36                           ; Copyright © 2020, Microchip Technology Inc. and its subsidiaries ("Microchip")
    37                           ; All rights reserved.
    38                           ; 
    39                           ; This software is developed by Microchip Technology Inc. and its subsidiaries ("Microch
      +                          ip").
    40                           ; 
    41                           ; Redistribution and use in source and binary forms, with or without modification, are
    42                           ; permitted provided that the following conditions are met:
    43                           ; 
    44                           ;     1. Redistributions of source code must retain the above copyright notice, this lis
      +                          t of
    45                           ;        conditions and the following disclaimer.
    46                           ; 
    47                           ;     2. Redistributions in binary form must reproduce the above copyright notice, this 
      +                          list
    48                           ;        of conditions and the following disclaimer in the documentation and/or other
    49                           ;        materials provided with the distribution.
    50                           ; 
    51                           ;     3. Microchip's name may not be used to endorse or promote products derived from th
      +                          is
    52                           ;        software without specific prior written permission.
    53                           ; 
    54                           ; THIS SOFTWARE IS PROVIDED BY MICROCHIP "AS IS" AND ANY EXPRESS OR IMPLIED WARRANTIES,
    55                           ; INCLUDING, BUT NOT LIMITED TO, THE IMPLIED WARRANTIES OF MERCHANTABILITY AND FITNESS F
      +                          OR
    56                           ; PURPOSE ARE DISCLAIMED.  IN NO EVENT SHALL MICROCHIP BE LIABLE FOR ANY DIRECT, INDIREC
      +                          T,
    57                           ; INCIDENTAL, SPECIAL, EXEMPLARY, OR CONSEQUENTIAL DAMAGES (INCLUDING BUT NOT LIMITED TO
    58                           ; PROCUREMENT OF SUBSTITUTE GOODS OR SERVICES; LOSS OF USE, DATA OR PROFITS; OR BUSINESS
    59                           ; INTERRUPTION) HOWSOEVER CAUSED AND ON ANY THEORY OF LIABILITY, WHETHER IN CONTRACT, ST
      +                          RICT
    60                           ; LIABILITY, OR TORT (INCLUDING NEGLIGENCE OR OTHERWISE) ARISING IN ANY WAY OUT OF THE U
      +                          SE OF
    61                           ; THIS SOFTWARE, EVEN IF ADVISED OF THE POSSIBILITY OF SUCH DAMAGE.
    62                           ; 
    63                           ; 
    64                           ; Code-generator required, PIC16F887 Definitions
    65                           ; 
    66                           ; SFR Addresses
    67  0000                     	;# 
    68  0001                     	;# 
    69  0002                     	;# 
    70  0003                     	;# 
    71  0004                     	;# 
    72  0005                     	;# 
    73  0006                     	;# 
    74  0007                     	;# 
    75  0008                     	;# 
    76  0009                     	;# 
    77  000A                     	;# 
    78  000B                     	;# 
    79  000C                     	;# 
    80  000D                     	;# 
    81  000E                     	;# 
    82  000E                     	;# 
    83  000F                     	;# 
    84  0010                     	;# 
    85  0011                     	;# 
    86  0012                     	;# 
    87  0013                     	;# 
    88  0014                     	;# 
    89  0015                     	;# 
    90  0015                     	;# 
    91  0016                     	;# 
    92  0017                     	;# 
    93  0018                     	;# 
    94  0019                     	;# 
    95  001A                     	;# 
    96  001B                     	;# 
    97  001B                     	;# 
    98  001C                     	;# 
    99  001D                     	;# 
   100  001E                     	;# 
   101  001F                     	;# 
   102  0081                     	;# 
   103  0085                     	;# 
   104  0086                     	;# 
   105  0087                     	;# 
   106  0088                     	;# 
   107  0089                     	;# 
   108  008C                     	;# 
   109  008D                     	;# 
   110  008E                     	;# 
   111  008F                     	;# 
   112  0090                     	;# 
   113  0091                     	;# 
   114  0092                     	;# 
   115  0093                     	;# 
   116  0093                     	;# 
   117  0093                     	;# 
   118  0094                     	;# 
   119  0095                     	;# 
   120  0096                     	;# 
   121  0097                     	;# 
   122  0098                     	;# 
   123  0099                     	;# 
   124  009A                     	;# 
   125  009B                     	;# 
   126  009C                     	;# 
   127  009D                     	;# 
   128  009E                     	;# 
   129  009F                     	;# 
   130  0105                     	;# 
   131  0107                     	;# 
   132  0108                     	;# 
   133  0109                     	;# 
   134  010C                     	;# 
   135  010C                     	;# 
   136  010D                     	;# 
   137  010E                     	;# 
   138  010F                     	;# 
   139  0185                     	;# 
   140  0187                     	;# 
   141  0188                     	;# 
   142  0189                     	;# 
   143  018C                     	;# 
   144  018D                     	;# 
   145  0000                     	;# 
   146  0001                     	;# 
   147  0002                     	;# 
   148  0003                     	;# 
   149  0004                     	;# 
   150  0005                     	;# 
   151  0006                     	;# 
   152  0007                     	;# 
   153  0008                     	;# 
   154  0009                     	;# 
   155  000A                     	;# 
   156  000B                     	;# 
   157  000C                     	;# 
   158  000D                     	;# 
   159  000E                     	;# 
   160  000E                     	;# 
   161  000F                     	;# 
   162  0010                     	;# 
   163  0011                     	;# 
   164  0012                     	;# 
   165  0013                     	;# 
   166  0014                     	;# 
   167  0015                     	;# 
   168  0015                     	;# 
   169  0016                     	;# 
   170  0017                     	;# 
   171  0018                     	;# 
   172  0019                     	;# 
   173  001A                     	;# 
   174  001B                     	;# 
   175  001B                     	;# 
   176  001C                     	;# 
   177  001D                     	;# 
   178  001E                     	;# 
   179  001F                     	;# 
   180  0081                     	;# 
   181  0085                     	;# 
   182  0086                     	;# 
   183  0087                     	;# 
   184  0088                     	;# 
   185  0089                     	;# 
   186  008C                     	;# 
   187  008D                     	;# 
   188  008E                     	;# 
   189  008F                     	;# 
   190  0090                     	;# 
   191  0091                     	;# 
   192  0092                     	;# 
   193  0093                     	;# 
   194  0093                     	;# 
   195  0093                     	;# 
   196  0094                     	;# 
   197  0095                     	;# 
   198  0096                     	;# 
   199  0097                     	;# 
   200  0098                     	;# 
   201  0099                     	;# 
   202  009A                     	;# 
   203  009B                     	;# 
   204  009C                     	;# 
   205  009D                     	;# 
   206  009E                     	;# 
   207  009F                     	;# 
   208  0105                     	;# 
   209  0107                     	;# 
   210  0108                     	;# 
   211  0109                     	;# 
   212  010C                     	;# 
   213  010C                     	;# 
   214  010D                     	;# 
   215  010E                     	;# 
   216  010F                     	;# 
   217  0185                     	;# 
   218  0187                     	;# 
   219  0188                     	;# 
   220  0189                     	;# 
   221  018C                     	;# 
   222  018D                     	;# 
   223  0000                     	;# 
   224  0001                     	;# 
   225  0002                     	;# 
   226  0003                     	;# 
   227  0004                     	;# 
   228  0005                     	;# 
   229  0006                     	;# 
   230  0007                     	;# 
   231  0008                     	;# 
   232  0009                     	;# 
   233  000A                     	;# 
   234  000B                     	;# 
   235  000C                     	;# 
   236  000D                     	;# 
   237  000E                     	;# 
   238  000E                     	;# 
   239  000F                     	;# 
   240  0010                     	;# 
   241  0011                     	;# 
   242  0012                     	;# 
   243  0013                     	;# 
   244  0014                     	;# 
   245  0015                     	;# 
   246  0015                     	;# 
   247  0016                     	;# 
   248  0017                     	;# 
   249  0018                     	;# 
   250  0019                     	;# 
   251  001A                     	;# 
   252  001B                     	;# 
   253  001B                     	;# 
   254  001C                     	;# 
   255  001D                     	;# 
   256  001E                     	;# 
   257  001F                     	;# 
   258  0081                     	;# 
   259  0085                     	;# 
   260  0086                     	;# 
   261  0087                     	;# 
   262  0088                     	;# 
   263  0089                     	;# 
   264  008C                     	;# 
   265  008D                     	;# 
   266  008E                     	;# 
   267  008F                     	;# 
   268  0090                     	;# 
   269  0091                     	;# 
   270  0092                     	;# 
   271  0093                     	;# 
   272  0093                     	;# 
   273  0093                     	;# 
   274  0094                     	;# 
   275  0095                     	;# 
   276  0096                     	;# 
   277  0097                     	;# 
   278  0098                     	;# 
   279  0099                     	;# 
   280  009A                     	;# 
   281  009B                     	;# 
   282  009C                     	;# 
   283  009D                     	;# 
   284  009E                     	;# 
   285  009F                     	;# 
   286  0105                     	;# 
   287  0107                     	;# 
   288  0108                     	;# 
   289  0109                     	;# 
   290  010C                     	;# 
   291  010C                     	;# 
   292  010D                     	;# 
   293  010E                     	;# 
   294  010F                     	;# 
   295  0185                     	;# 
   296  0187                     	;# 
   297  0188                     	;# 
   298  0189                     	;# 
   299  018C                     	;# 
   300  018D                     	;# 
   301  0000                     	;# 
   302  0001                     	;# 
   303  0002                     	;# 
   304  0003                     	;# 
   305  0004                     	;# 
   306  0005                     	;# 
   307  0006                     	;# 
   308  0007                     	;# 
   309  0008                     	;# 
   310  0009                     	;# 
   311  000A                     	;# 
   312  000B                     	;# 
   313  000C                     	;# 
   314  000D                     	;# 
   315  000E                     	;# 
   316  000E                     	;# 
   317  000F                     	;# 
   318  0010                     	;# 
   319  0011                     	;# 
   320  0012                     	;# 
   321  0013                     	;# 
   322  0014                     	;# 
   323  0015                     	;# 
   324  0015                     	;# 
   325  0016                     	;# 
   326  0017                     	;# 
   327  0018                     	;# 
   328  0019                     	;# 
   329  001A                     	;# 
   330  001B                     	;# 
   331  001B                     	;# 
   332  001C                     	;# 
   333  001D                     	;# 
   334  001E                     	;# 
   335  001F                     	;# 
   336  0081                     	;# 
   337  0085                     	;# 
   338  0086                     	;# 
   339  0087                     	;# 
   340  0088                     	;# 
   341  0089                     	;# 
   342  008C                     	;# 
   343  008D                     	;# 
   344  008E                     	;# 
   345  008F                     	;# 
   346  0090                     	;# 
   347  0091                     	;# 
   348  0092                     	;# 
   349  0093                     	;# 
   350  0093                     	;# 
   351  0093                     	;# 
   352  0094                     	;# 
   353  0095                     	;# 
   354  0096                     	;# 
   355  0097                     	;# 
   356  0098                     	;# 
   357  0099                     	;# 
   358  009A                     	;# 
   359  009B                     	;# 
   360  009C                     	;# 
   361  009D                     	;# 
   362  009E                     	;# 
   363  009F                     	;# 
   364  0105                     	;# 
   365  0107                     	;# 
   366  0108                     	;# 
   367  0109                     	;# 
   368  010C                     	;# 
   369  010C                     	;# 
   370  010D                     	;# 
   371  010E                     	;# 
   372  010F                     	;# 
   373  0185                     	;# 
   374  0187                     	;# 
   375  0188                     	;# 
   376  0189                     	;# 
   377  018C                     	;# 
   378  018D                     	;# 
   379  0000                     	;# 
   380  0001                     	;# 
   381  0002                     	;# 
   382  0003                     	;# 
   383  0004                     	;# 
   384  0005                     	;# 
   385  0006                     	;# 
   386  0007                     	;# 
   387  0008                     	;# 
   388  0009                     	;# 
   389  000A                     	;# 
   390  000B                     	;# 
   391  000C                     	;# 
   392  000D                     	;# 
   393  000E                     	;# 
   394  000E                     	;# 
   395  000F                     	;# 
   396  0010                     	;# 
   397  0011                     	;# 
   398  0012                     	;# 
   399  0013                     	;# 
   400  0014                     	;# 
   401  0015                     	;# 
   402  0015                     	;# 
   403  0016                     	;# 
   404  0017                     	;# 
   405  0018                     	;# 
   406  0019                     	;# 
   407  001A                     	;# 
   408  001B                     	;# 
   409  001B                     	;# 
   410  001C                     	;# 
   411  001D                     	;# 
   412  001E                     	;# 
   413  001F                     	;# 
   414  0081                     	;# 
   415  0085                     	;# 
   416  0086                     	;# 
   417  0087                     	;# 
   418  0088                     	;# 
   419  0089                     	;# 
   420  008C                     	;# 
   421  008D                     	;# 
   422  008E                     	;# 
   423  008F                     	;# 
   424  0090                     	;# 
   425  0091                     	;# 
   426  0092                     	;# 
   427  0093                     	;# 
   428  0093                     	;# 
   429  0093                     	;# 
   430  0094                     	;# 
   431  0095                     	;# 
   432  0096                     	;# 
   433  0097                     	;# 
   434  0098                     	;# 
   435  0099                     	;# 
   436  009A                     	;# 
   437  009B                     	;# 
   438  009C                     	;# 
   439  009D                     	;# 
   440  009E                     	;# 
   441  009F                     	;# 
   442  0105                     	;# 
   443  0107                     	;# 
   444  0108                     	;# 
   445  0109                     	;# 
   446  010C                     	;# 
   447  010C                     	;# 
   448  010D                     	;# 
   449  010E                     	;# 
   450  010F                     	;# 
   451  0185                     	;# 
   452  0187                     	;# 
   453  0188                     	;# 
   454  0189                     	;# 
   455  018C                     	;# 
   456  018D                     	;# 
   457  0019                     _TXREG	set	25
   458  0018                     _RCSTAbits	set	24
   459  0013                     _SSPBUF	set	19
   460  0014                     _SSPCON	set	20
   461  000B                     _INTCONbits	set	11
   462  0009                     _PORTE	set	9
   463  0007                     _PORTC	set	7
   464  0006                     _PORTB	set	6
   465  0005                     _PORTA	set	5
   466  0008                     _PORTD	set	8
   467  001A                     _RCREG	set	26
   468  0007                     _PORTCbits	set	7
   469  000C                     _PIR1bits	set	12
   470  0064                     _TXIF	set	100
   471  0063                     _SSPIF	set	99
   472  005E                     _PEIE	set	94
   473  005F                     _GIE	set	95
   474  009A                     _SPBRGH	set	154
   475  0099                     _SPBRG	set	153
   476  008C                     _PIE1bits	set	140
   477  0098                     _TXSTAbits	set	152
   478  0091                     _SSPCON2bits	set	145
   479  0087                     _TRISCbits	set	135
   480  0094                     _SSPSTAT	set	148
   481  0093                     _SSPADD	set	147
   482  0091                     _SSPCON2	set	145
   483  0089                     _TRISE	set	137
   484  0088                     _TRISD	set	136
   485  0087                     _TRISC	set	135
   486  0086                     _TRISB	set	134
   487  0085                     _TRISA	set	133
   488  0463                     _SSPIE	set	1123
   489  043C                     _TRISC4	set	1084
   490  043B                     _TRISC3	set	1083
   491  0187                     _BAUDCTLbits	set	391
   492  0189                     _ANSELH	set	393
   493  0188                     _ANSEL	set	392
   494                           
   495                           	psect	cinit
   496  000F                     start_initialization:	
   497                           ; #config settings
   498                           
   499  000F                     __initialization:
   500                           
   501                           ; Clear objects allocated to BANK0
   502  000F  1283               	bcf	3,5	;RP0=0, select bank0
   503  0010  1303               	bcf	3,6	;RP1=0, select bank0
   504  0011  01BB               	clrf	__pbssBANK0& (0+127)
   505  0012  01BC               	clrf	(__pbssBANK0+1)& (0+127)
   506  0013  01BD               	clrf	(__pbssBANK0+2)& (0+127)
   507  0014  01BE               	clrf	(__pbssBANK0+3)& (0+127)
   508  0015  01BF               	clrf	(__pbssBANK0+4)& (0+127)
   509  0016                     end_of_initialization:	
   510                           ;End of C runtime variable initialization code
   511                           
   512  0016                     __end_of__initialization:
   513  0016  0183               	clrf	3
   514  0017  120A  118A  281A   	ljmp	_main	;jump to C main() function
   515                           
   516                           	psect	bssBANK0
   517  003B                     __pbssBANK0:
   518  003B                     _valorRX:
   519  003B                     	ds	1
   520  003C                     _contador:
   521  003C                     	ds	1
   522  003D                     _Ax:
   523  003D                     	ds	1
   524  003E                     _Az:
   525  003E                     	ds	1
   526  003F                     _Ay:
   527  003F                     	ds	1
   528                           
   529                           	psect	cstackCOMMON
   530  0070                     __pcstackCOMMON:
   531  0070                     ?_UART_get_char:
   532  0070                     ??_UART_get_char:	
   533                           ; 1 bytes @ 0x0
   534                           
   535  0070                     ?_setup:	
   536                           ; 1 bytes @ 0x0
   537                           
   538  0070                     ?_MPU6050_init:	
   539                           ; 1 bytes @ 0x0
   540                           
   541  0070                     ?_UART_config:	
   542                           ; 1 bytes @ 0x0
   543                           
   544  0070                     ?_UART_send_char:	
   545                           ; 1 bytes @ 0x0
   546                           
   547  0070                     ?_MPU6050_get_Ax:	
   548                           ; 1 bytes @ 0x0
   549                           
   550  0070                     ?_I2C_Master_Start:	
   551                           ; 1 bytes @ 0x0
   552                           
   553  0070                     ?_I2C_Master_Stop:	
   554                           ; 1 bytes @ 0x0
   555                           
   556  0070                     ?_isr:	
   557                           ; 1 bytes @ 0x0
   558                           
   559  0070                     ??_isr:	
   560                           ; 1 bytes @ 0x0
   561                           
   562  0070                     ?_main:	
   563                           ; 1 bytes @ 0x0
   564                           
   565  0070                     ?_I2C_Master_Wait:	
   566                           ; 1 bytes @ 0x0
   567                           
   568                           
   569                           ; 1 bytes @ 0x0
   570  0070                     	ds	3
   571  0073                     ??_UART_config:
   572  0073                     ??_UART_send_char:	
   573                           ; 1 bytes @ 0x3
   574                           
   575  0073                     ??_I2C_Master_Start:	
   576                           ; 1 bytes @ 0x3
   577                           
   578  0073                     ?_I2C_Master_Write:	
   579                           ; 1 bytes @ 0x3
   580                           
   581  0073                     ??_I2C_Master_Stop:	
   582                           ; 1 bytes @ 0x3
   583                           
   584  0073                     ??_I2C_Master_Wait:	
   585                           ; 1 bytes @ 0x3
   586                           
   587  0073                     ?_I2C_Master_Read:	
   588                           ; 1 bytes @ 0x3
   589                           
   590  0073                     ?___lldiv:	
   591                           ; 2 bytes @ 0x3
   592                           
   593  0073                     ?___xxtofl:	
   594                           ; 4 bytes @ 0x3
   595                           
   596  0073                     UART_send_char@bt:	
   597                           ; 4 bytes @ 0x3
   598                           
   599  0073                     I2C_Master_Write@d:	
   600                           ; 1 bytes @ 0x3
   601                           
   602  0073                     I2C_Master_Read@a:	
   603                           ; 2 bytes @ 0x3
   604                           
   605  0073                     ___lldiv@divisor:	
   606                           ; 2 bytes @ 0x3
   607                           
   608  0073                     ___xxtofl@val:	
   609                           ; 4 bytes @ 0x3
   610                           
   611                           
   612                           ; 4 bytes @ 0x3
   613  0073                     	ds	2
   614  0075                     ??_I2C_Master_Write:
   615  0075                     ??_I2C_Master_Read:	
   616                           ; 1 bytes @ 0x5
   617                           
   618  0075                     ?_MPU6050_write:	
   619                           ; 1 bytes @ 0x5
   620                           
   621  0075                     MPU6050_write@add:	
   622                           ; 1 bytes @ 0x5
   623                           
   624                           
   625                           ; 2 bytes @ 0x5
   626  0075                     	ds	2
   627  0077                     ??___xxtofl:
   628  0077                     MPU6050_write@data:	
   629                           ; 1 bytes @ 0x7
   630                           
   631  0077                     I2C_Master_Read@temp:	
   632                           ; 2 bytes @ 0x7
   633                           
   634  0077                     ___lldiv@dividend:	
   635                           ; 2 bytes @ 0x7
   636                           
   637                           
   638                           ; 4 bytes @ 0x7
   639  0077                     	ds	2
   640  0079                     ??_MPU6050_init:
   641  0079                     ??_MPU6050_write:	
   642                           ; 1 bytes @ 0x9
   643                           
   644  0079                     ?_MPU6050_read:	
   645                           ; 1 bytes @ 0x9
   646                           
   647  0079                     MPU6050_read@add:	
   648                           ; 2 bytes @ 0x9
   649                           
   650                           
   651                           ; 2 bytes @ 0x9
   652  0079                     	ds	2
   653  007B                     ??_setup:
   654  007B                     ??_MPU6050_read:	
   655                           ; 1 bytes @ 0xB
   656                           
   657                           
   658                           	psect	cstackBANK0
   659  0020                     __pcstackBANK0:	
   660                           ; 1 bytes @ 0xB
   661                           
   662  0020                     ??___lldiv:
   663  0020                     ___xxtofl@sign:	
   664                           ; 1 bytes @ 0x0
   665                           
   666  0020                     MPU6050_read@retval:	
   667                           ; 1 bytes @ 0x0
   668                           
   669                           
   670                           ; 2 bytes @ 0x0
   671  0020                     	ds	1
   672  0021                     ___xxtofl@exp:
   673  0021                     ___lldiv@quotient:	
   674                           ; 1 bytes @ 0x1
   675                           
   676                           
   677                           ; 4 bytes @ 0x1
   678  0021                     	ds	1
   679  0022                     ??_MPU6050_get_Ax:
   680  0022                     ___xxtofl@arg:	
   681                           ; 1 bytes @ 0x2
   682                           
   683                           
   684                           ; 4 bytes @ 0x2
   685  0022                     	ds	1
   686  0023                     MPU6050_get_Ax@A_data_x:
   687                           
   688                           ; 2 bytes @ 0x3
   689  0023                     	ds	2
   690  0025                     ___lldiv@counter:
   691                           
   692                           ; 1 bytes @ 0x5
   693  0025                     	ds	1
   694  0026                     ?_I2C_Master_Init:
   695  0026                     ?_MPU6050_get_Ay:	
   696                           ; 1 bytes @ 0x6
   697                           
   698  0026                     ?_MPU6050_get_Az:	
   699                           ; 4 bytes @ 0x6
   700                           
   701  0026                     I2C_Master_Init@c:	
   702                           ; 4 bytes @ 0x6
   703                           
   704                           
   705                           ; 4 bytes @ 0x6
   706  0026                     	ds	4
   707  002A                     ??_MPU6050_get_Ay:
   708  002A                     ??_MPU6050_get_Az:	
   709                           ; 1 bytes @ 0xA
   710                           
   711  002A                     ??_I2C_Master_Init:	
   712                           ; 1 bytes @ 0xA
   713                           
   714                           
   715                           ; 1 bytes @ 0xA
   716  002A                     	ds	1
   717  002B                     MPU6050_get_Ay@A_data_y:
   718  002B                     MPU6050_get_Az@A_data_z:	
   719                           ; 2 bytes @ 0xB
   720                           
   721                           
   722                           ; 2 bytes @ 0xB
   723  002B                     	ds	2
   724  002D                     ?___fltol:
   725  002D                     ___fltol@f1:	
   726                           ; 4 bytes @ 0xD
   727                           
   728                           
   729                           ; 4 bytes @ 0xD
   730  002D                     	ds	4
   731  0031                     ??___fltol:
   732                           
   733                           ; 1 bytes @ 0x11
   734  0031                     	ds	5
   735  0036                     ___fltol@sign1:
   736                           
   737                           ; 1 bytes @ 0x16
   738  0036                     	ds	1
   739  0037                     ___fltol@exp1:
   740                           
   741                           ; 1 bytes @ 0x17
   742  0037                     	ds	1
   743  0038                     ??_main:
   744                           
   745                           ; 1 bytes @ 0x18
   746  0038                     	ds	3
   747                           
   748                           	psect	maintext
   749  001A                     __pmaintext:	
   750 ;;
   751 ;;Main: autosize = 0, tempsize = 3, incstack = 0, save=0
   752 ;;
   753 ;; *************** function _main *****************
   754 ;; Defined at:
   755 ;;		line 58 in file "MiniProyecto_I2C.c"
   756 ;; Parameters:    Size  Location     Type
   757 ;;		None
   758 ;; Auto vars:     Size  Location     Type
   759 ;;		None
   760 ;; Return value:  Size  Location     Type
   761 ;;                  1    wreg      void 
   762 ;; Registers used:
   763 ;;		wreg, status,2, status,0, pclath, cstack
   764 ;; Tracked objects:
   765 ;;		On entry : B00/0
   766 ;;		On exit  : 0/0
   767 ;;		Unchanged: 0/0
   768 ;; Data sizes:     COMMON   BANK0   BANK1   BANK3   BANK2
   769 ;;      Params:         0       0       0       0       0
   770 ;;      Locals:         0       0       0       0       0
   771 ;;      Temps:          0       3       0       0       0
   772 ;;      Totals:         0       3       0       0       0
   773 ;;Total ram usage:        3 bytes
   774 ;; Hardware stack levels required when called:    6
   775 ;; This function calls:
   776 ;;		_MPU6050_get_Ax
   777 ;;		_MPU6050_get_Ay
   778 ;;		_MPU6050_get_Az
   779 ;;		_MPU6050_init
   780 ;;		_UART_config
   781 ;;		_UART_send_char
   782 ;;		___fltol
   783 ;;		_setup
   784 ;; This function is called by:
   785 ;;		Startup code after reset
   786 ;; This function uses a non-reentrant model
   787 ;;
   788                           
   789                           
   790                           ;psect for function _main
   791  001A                     _main:
   792  001A                     l1329:	
   793                           ;incstack = 0
   794                           ; Regs used in _main: [wreg+status,2+status,0+pclath+cstack]
   795                           
   796                           
   797                           ;MiniProyecto_I2C.c: 59:         UART_send_char(Ay);
   798  001A  120A  118A  238F  120A  118A  	fcall	_setup
   799                           
   800                           ;MiniProyecto_I2C.c: 60:         _delay((unsigned long)((200)*(4000000/4000.0)));
   801  001F  120A  118A  22CA  120A  118A  	fcall	_MPU6050_init
   802                           
   803                           ;MiniProyecto_I2C.c: 61: 
   804  0024  120A  118A  2488  120A  118A  	fcall	_UART_config
   805  0029                     l1331:
   806                           
   807                           ;MiniProyecto_I2C.c: 65:         UART_send_char(Az);
   808  0029  30F2               	movlw	242
   809  002A  1283               	bcf	3,5	;RP0=0, select bank0
   810  002B  1303               	bcf	3,6	;RP1=0, select bank0
   811  002C  063B               	xorwf	_valorRX,w
   812  002D  1D03               	btfss	3,2
   813  002E  2830               	goto	u841
   814  002F  2831               	goto	u840
   815  0030                     u841:
   816  0030  2835               	goto	l1337
   817  0031                     u840:
   818  0031                     l1333:
   819                           
   820                           ;MiniProyecto_I2C.c: 66:         _delay((unsigned long)((200)*(4000000/4000.0)));
   821  0031  1107               	bcf	7,2	;volatile
   822  0032                     l1335:
   823  0032  019A               	clrf	26	;volatile
   824  0033  01BB               	clrf	_valorRX
   825  0034  284D               	goto	l1355
   826  0035                     l1337:
   827  0035  30FE               	movlw	254
   828  0036  063B               	xorwf	_valorRX,w
   829  0037  1D03               	btfss	3,2
   830  0038  283A               	goto	u851
   831  0039  283B               	goto	u850
   832  003A                     u851:
   833  003A  283D               	goto	l1343
   834  003B                     u850:
   835  003B                     l1339:
   836  003B  1507               	bsf	7,2	;volatile
   837  003C  2832               	goto	l1335
   838  003D                     l1343:
   839  003D  30F7               	movlw	247
   840  003E  063B               	xorwf	_valorRX,w
   841  003F  1D03               	btfss	3,2
   842  0040  2842               	goto	u861
   843  0041  2843               	goto	u860
   844  0042                     u861:
   845  0042  2845               	goto	l1349
   846  0043                     u860:
   847  0043                     l1345:
   848  0043  1087               	bcf	7,1	;volatile
   849  0044  2832               	goto	l1335
   850  0045                     l1349:
   851  0045  30FB               	movlw	251
   852  0046  063B               	xorwf	_valorRX,w
   853  0047  1D03               	btfss	3,2
   854  0048  284A               	goto	u871
   855  0049  284B               	goto	u870
   856  004A                     u871:
   857  004A  284D               	goto	l77
   858  004B                     u870:
   859  004B                     l1351:
   860  004B  1487               	bsf	7,1	;volatile
   861  004C  2832               	goto	l1335
   862  004D                     l77:
   863  004D                     l1355:
   864  004D  3000               	movlw	0
   865  004E  120A  118A  24FB  120A  118A  	fcall	_UART_send_char
   866  0053                     l1357:
   867  0053  3002               	movlw	2
   868  0054  1283               	bcf	3,5	;RP0=0, select bank0
   869  0055  1303               	bcf	3,6	;RP1=0, select bank0
   870  0056  00BA               	movwf	??_main+2
   871  0057  3004               	movlw	4
   872  0058  00B9               	movwf	??_main+1
   873  0059  30B9               	movlw	185
   874  005A  00B8               	movwf	??_main
   875  005B                     u897:
   876  005B  0BB8               	decfsz	??_main,f
   877  005C  285B               	goto	u897
   878  005D  0BB9               	decfsz	??_main+1,f
   879  005E  285B               	goto	u897
   880  005F  0BBA               	decfsz	??_main+2,f
   881  0060  285B               	goto	u897
   882  0061  2862               	nop2
   883  0062                     l1359:
   884  0062  120A  118A  24A8  120A  118A  	fcall	_MPU6050_get_Ax
   885  0067  1283               	bcf	3,5	;RP0=0, select bank0
   886  0068  1303               	bcf	3,6	;RP1=0, select bank0
   887  0069  00B8               	movwf	??_main
   888  006A  0838               	movf	??_main,w
   889  006B  00BD               	movwf	_Ax
   890  006C                     l1361:
   891  006C  083D               	movf	_Ax,w
   892  006D  0088               	movwf	8	;volatile
   893  006E                     l1363:
   894  006E  3061               	movlw	97
   895  006F  120A  118A  24FB  120A  118A  	fcall	_UART_send_char
   896  0074                     l1365:
   897  0074  3002               	movlw	2
   898  0075  1283               	bcf	3,5	;RP0=0, select bank0
   899  0076  1303               	bcf	3,6	;RP1=0, select bank0
   900  0077  00BA               	movwf	??_main+2
   901  0078  3004               	movlw	4
   902  0079  00B9               	movwf	??_main+1
   903  007A  30B9               	movlw	185
   904  007B  00B8               	movwf	??_main
   905  007C                     u907:
   906  007C  0BB8               	decfsz	??_main,f
   907  007D  287C               	goto	u907
   908  007E  0BB9               	decfsz	??_main+1,f
   909  007F  287C               	goto	u907
   910  0080  0BBA               	decfsz	??_main+2,f
   911  0081  287C               	goto	u907
   912  0082  2883               	nop2
   913  0083                     l1367:
   914  0083  1283               	bcf	3,5	;RP0=0, select bank0
   915  0084  1303               	bcf	3,6	;RP1=0, select bank0
   916  0085  083D               	movf	_Ax,w
   917  0086  120A  118A  24FB  120A  118A  	fcall	_UART_send_char
   918  008B                     l1369:
   919  008B  3002               	movlw	2
   920  008C  1283               	bcf	3,5	;RP0=0, select bank0
   921  008D  1303               	bcf	3,6	;RP1=0, select bank0
   922  008E  00BA               	movwf	??_main+2
   923  008F  3004               	movlw	4
   924  0090  00B9               	movwf	??_main+1
   925  0091  30B9               	movlw	185
   926  0092  00B8               	movwf	??_main
   927  0093                     u917:
   928  0093  0BB8               	decfsz	??_main,f
   929  0094  2893               	goto	u917
   930  0095  0BB9               	decfsz	??_main+1,f
   931  0096  2893               	goto	u917
   932  0097  0BBA               	decfsz	??_main+2,f
   933  0098  2893               	goto	u917
   934  0099  289A               	nop2
   935  009A                     l1371:
   936  009A  120A  118A  23FD  120A  118A  	fcall	_MPU6050_get_Ay
   937  009F  1283               	bcf	3,5	;RP0=0, select bank0
   938  00A0  1303               	bcf	3,6	;RP1=0, select bank0
   939  00A1  0829               	movf	?_MPU6050_get_Ay+3,w
   940  00A2  00B0               	movwf	___fltol@f1+3
   941  00A3  0828               	movf	?_MPU6050_get_Ay+2,w
   942  00A4  00AF               	movwf	___fltol@f1+2
   943  00A5  0827               	movf	?_MPU6050_get_Ay+1,w
   944  00A6  00AE               	movwf	___fltol@f1+1
   945  00A7  0826               	movf	?_MPU6050_get_Ay,w
   946  00A8  00AD               	movwf	___fltol@f1
   947  00A9  120A  118A  21E6  120A  118A  	fcall	___fltol
   948  00AE  1283               	bcf	3,5	;RP0=0, select bank0
   949  00AF  1303               	bcf	3,6	;RP1=0, select bank0
   950  00B0  082D               	movf	?___fltol,w
   951  00B1  00B8               	movwf	??_main
   952  00B2  0838               	movf	??_main,w
   953  00B3  00BF               	movwf	_Ay
   954  00B4                     l1373:
   955  00B4  3062               	movlw	98
   956  00B5  120A  118A  24FB  120A  118A  	fcall	_UART_send_char
   957  00BA                     l1375:
   958  00BA  3002               	movlw	2
   959  00BB  1283               	bcf	3,5	;RP0=0, select bank0
   960  00BC  1303               	bcf	3,6	;RP1=0, select bank0
   961  00BD  00BA               	movwf	??_main+2
   962  00BE  3004               	movlw	4
   963  00BF  00B9               	movwf	??_main+1
   964  00C0  30B9               	movlw	185
   965  00C1  00B8               	movwf	??_main
   966  00C2                     u927:
   967  00C2  0BB8               	decfsz	??_main,f
   968  00C3  28C2               	goto	u927
   969  00C4  0BB9               	decfsz	??_main+1,f
   970  00C5  28C2               	goto	u927
   971  00C6  0BBA               	decfsz	??_main+2,f
   972  00C7  28C2               	goto	u927
   973  00C8  28C9               	nop2
   974  00C9                     l1377:
   975  00C9  1283               	bcf	3,5	;RP0=0, select bank0
   976  00CA  1303               	bcf	3,6	;RP1=0, select bank0
   977  00CB  083F               	movf	_Ay,w
   978  00CC  120A  118A  24FB  120A  118A  	fcall	_UART_send_char
   979  00D1                     l1379:
   980  00D1  3002               	movlw	2
   981  00D2  1283               	bcf	3,5	;RP0=0, select bank0
   982  00D3  1303               	bcf	3,6	;RP1=0, select bank0
   983  00D4  00BA               	movwf	??_main+2
   984  00D5  3004               	movlw	4
   985  00D6  00B9               	movwf	??_main+1
   986  00D7  30B9               	movlw	185
   987  00D8  00B8               	movwf	??_main
   988  00D9                     u937:
   989  00D9  0BB8               	decfsz	??_main,f
   990  00DA  28D9               	goto	u937
   991  00DB  0BB9               	decfsz	??_main+1,f
   992  00DC  28D9               	goto	u937
   993  00DD  0BBA               	decfsz	??_main+2,f
   994  00DE  28D9               	goto	u937
   995  00DF  28E0               	nop2
   996  00E0                     l1381:
   997  00E0  120A  118A  23C6  120A  118A  	fcall	_MPU6050_get_Az
   998  00E5  1283               	bcf	3,5	;RP0=0, select bank0
   999  00E6  1303               	bcf	3,6	;RP1=0, select bank0
  1000  00E7  0829               	movf	?_MPU6050_get_Az+3,w
  1001  00E8  00B0               	movwf	___fltol@f1+3
  1002  00E9  0828               	movf	?_MPU6050_get_Az+2,w
  1003  00EA  00AF               	movwf	___fltol@f1+2
  1004  00EB  0827               	movf	?_MPU6050_get_Az+1,w
  1005  00EC  00AE               	movwf	___fltol@f1+1
  1006  00ED  0826               	movf	?_MPU6050_get_Az,w
  1007  00EE  00AD               	movwf	___fltol@f1
  1008  00EF  120A  118A  21E6  120A  118A  	fcall	___fltol
  1009  00F4  1283               	bcf	3,5	;RP0=0, select bank0
  1010  00F5  1303               	bcf	3,6	;RP1=0, select bank0
  1011  00F6  082D               	movf	?___fltol,w
  1012  00F7  00B8               	movwf	??_main
  1013  00F8  0838               	movf	??_main,w
  1014  00F9  00BE               	movwf	_Az
  1015  00FA                     l1383:
  1016  00FA  3063               	movlw	99
  1017  00FB  120A  118A  24FB  120A  118A  	fcall	_UART_send_char
  1018  0100                     l1385:
  1019  0100  3002               	movlw	2
  1020  0101  1283               	bcf	3,5	;RP0=0, select bank0
  1021  0102  1303               	bcf	3,6	;RP1=0, select bank0
  1022  0103  00BA               	movwf	??_main+2
  1023  0104  3004               	movlw	4
  1024  0105  00B9               	movwf	??_main+1
  1025  0106  30B9               	movlw	185
  1026  0107  00B8               	movwf	??_main
  1027  0108                     u947:
  1028  0108  0BB8               	decfsz	??_main,f
  1029  0109  2908               	goto	u947
  1030  010A  0BB9               	decfsz	??_main+1,f
  1031  010B  2908               	goto	u947
  1032  010C  0BBA               	decfsz	??_main+2,f
  1033  010D  2908               	goto	u947
  1034  010E  290F               	nop2
  1035  010F                     l1387:
  1036  010F  1283               	bcf	3,5	;RP0=0, select bank0
  1037  0110  1303               	bcf	3,6	;RP1=0, select bank0
  1038  0111  083E               	movf	_Az,w
  1039  0112  120A  118A  24FB  120A  118A  	fcall	_UART_send_char
  1040  0117                     l1389:
  1041  0117  3002               	movlw	2
  1042  0118  1283               	bcf	3,5	;RP0=0, select bank0
  1043  0119  1303               	bcf	3,6	;RP1=0, select bank0
  1044  011A  00BA               	movwf	??_main+2
  1045  011B  3004               	movlw	4
  1046  011C  00B9               	movwf	??_main+1
  1047  011D  30B9               	movlw	185
  1048  011E  00B8               	movwf	??_main
  1049  011F                     u957:
  1050  011F  0BB8               	decfsz	??_main,f
  1051  0120  291F               	goto	u957
  1052  0121  0BB9               	decfsz	??_main+1,f
  1053  0122  291F               	goto	u957
  1054  0123  0BBA               	decfsz	??_main+2,f
  1055  0124  291F               	goto	u957
  1056  0125  2926               	nop2
  1057  0126  2829               	goto	l1331
  1058  0127  120A  118A  280C   	ljmp	start
  1059  012A                     __end_of_main:
  1060                           
  1061                           	psect	text1
  1062  038F                     __ptext1:	
  1063 ;; *************** function _setup *****************
  1064 ;; Defined at:
  1065 ;;		line 116 in file "MiniProyecto_I2C.c"
  1066 ;; Parameters:    Size  Location     Type
  1067 ;;		None
  1068 ;; Auto vars:     Size  Location     Type
  1069 ;;		None
  1070 ;; Return value:  Size  Location     Type
  1071 ;;                  1    wreg      void 
  1072 ;; Registers used:
  1073 ;;		wreg, status,2, status,0, pclath, cstack
  1074 ;; Tracked objects:
  1075 ;;		On entry : 0/0
  1076 ;;		On exit  : 0/0
  1077 ;;		Unchanged: 0/0
  1078 ;; Data sizes:     COMMON   BANK0   BANK1   BANK3   BANK2
  1079 ;;      Params:         0       0       0       0       0
  1080 ;;      Locals:         0       0       0       0       0
  1081 ;;      Temps:          0       0       0       0       0
  1082 ;;      Totals:         0       0       0       0       0
  1083 ;;Total ram usage:        0 bytes
  1084 ;; Hardware stack levels used:    1
  1085 ;; Hardware stack levels required when called:    4
  1086 ;; This function calls:
  1087 ;;		_I2C_Master_Init
  1088 ;; This function is called by:
  1089 ;;		_main
  1090 ;; This function uses a non-reentrant model
  1091 ;;
  1092                           
  1093                           
  1094                           ;psect for function _setup
  1095  038F                     _setup:
  1096  038F                     l1239:	
  1097                           ;incstack = 0
  1098                           ; Regs used in _setup: [wreg+status,2+status,0+pclath+cstack]
  1099                           
  1100                           
  1101                           ;MiniProyecto_I2C.c: 117:     ANSEL = 0;
  1102  038F  1683               	bsf	3,5	;RP0=1, select bank3
  1103  0390  1703               	bsf	3,6	;RP1=1, select bank3
  1104  0391  0188               	clrf	8	;volatile
  1105                           
  1106                           ;MiniProyecto_I2C.c: 118:     ANSELH = 0;
  1107  0392  0189               	clrf	9	;volatile
  1108                           
  1109                           ;MiniProyecto_I2C.c: 119:     TRISA = 0;
  1110  0393  1683               	bsf	3,5	;RP0=1, select bank1
  1111  0394  1303               	bcf	3,6	;RP1=0, select bank1
  1112  0395  0185               	clrf	5	;volatile
  1113                           
  1114                           ;MiniProyecto_I2C.c: 120:     TRISA = 0;
  1115  0396  0185               	clrf	5	;volatile
  1116                           
  1117                           ;MiniProyecto_I2C.c: 121:     PORTA = 0;
  1118  0397  1283               	bcf	3,5	;RP0=0, select bank0
  1119  0398  1303               	bcf	3,6	;RP1=0, select bank0
  1120  0399  0185               	clrf	5	;volatile
  1121                           
  1122                           ;MiniProyecto_I2C.c: 122:     TRISB = 0;
  1123  039A  1683               	bsf	3,5	;RP0=1, select bank1
  1124  039B  1303               	bcf	3,6	;RP1=0, select bank1
  1125  039C  0186               	clrf	6	;volatile
  1126                           
  1127                           ;MiniProyecto_I2C.c: 123:     PORTB = 0;
  1128  039D  1283               	bcf	3,5	;RP0=0, select bank0
  1129  039E  1303               	bcf	3,6	;RP1=0, select bank0
  1130  039F  0186               	clrf	6	;volatile
  1131                           
  1132                           ;MiniProyecto_I2C.c: 124:     TRISC = 0;
  1133  03A0  1683               	bsf	3,5	;RP0=1, select bank1
  1134  03A1  1303               	bcf	3,6	;RP1=0, select bank1
  1135  03A2  0187               	clrf	7	;volatile
  1136                           
  1137                           ;MiniProyecto_I2C.c: 125:     PORTC = 0;
  1138  03A3  1283               	bcf	3,5	;RP0=0, select bank0
  1139  03A4  1303               	bcf	3,6	;RP1=0, select bank0
  1140  03A5  0187               	clrf	7	;volatile
  1141                           
  1142                           ;MiniProyecto_I2C.c: 126:     TRISD = 0;
  1143  03A6  1683               	bsf	3,5	;RP0=1, select bank1
  1144  03A7  1303               	bcf	3,6	;RP1=0, select bank1
  1145  03A8  0188               	clrf	8	;volatile
  1146                           
  1147                           ;MiniProyecto_I2C.c: 127:     PORTD = 0;
  1148  03A9  1283               	bcf	3,5	;RP0=0, select bank0
  1149  03AA  1303               	bcf	3,6	;RP1=0, select bank0
  1150  03AB  0188               	clrf	8	;volatile
  1151                           
  1152                           ;MiniProyecto_I2C.c: 128:     TRISE = 0;
  1153  03AC  1683               	bsf	3,5	;RP0=1, select bank1
  1154  03AD  1303               	bcf	3,6	;RP1=0, select bank1
  1155  03AE  0189               	clrf	9	;volatile
  1156                           
  1157                           ;MiniProyecto_I2C.c: 129:     PORTE = 0;
  1158  03AF  1283               	bcf	3,5	;RP0=0, select bank0
  1159  03B0  1303               	bcf	3,6	;RP1=0, select bank0
  1160  03B1  0189               	clrf	9	;volatile
  1161                           
  1162                           ;MiniProyecto_I2C.c: 130:     contador = 0;
  1163  03B2  01BC               	clrf	_contador
  1164  03B3                     l1241:
  1165                           
  1166                           ;MiniProyecto_I2C.c: 131:     I2C_Master_Init(100000);
  1167  03B3  3000               	movlw	0
  1168  03B4  00A9               	movwf	I2C_Master_Init@c+3
  1169  03B5  3001               	movlw	1
  1170  03B6  00A8               	movwf	I2C_Master_Init@c+2
  1171  03B7  3086               	movlw	134
  1172  03B8  00A7               	movwf	I2C_Master_Init@c+1
  1173  03B9  30A0               	movlw	160
  1174  03BA  00A6               	movwf	I2C_Master_Init@c
  1175  03BB  120A  118A  2357  120A  118A  	fcall	_I2C_Master_Init
  1176  03C0                     l1243:
  1177                           
  1178                           ;MiniProyecto_I2C.c: 132:     INTCONbits.GIE = 1;
  1179  03C0  178B               	bsf	11,7	;volatile
  1180  03C1                     l1245:
  1181                           
  1182                           ;MiniProyecto_I2C.c: 133:     INTCONbits.PEIE = 1;
  1183  03C1  170B               	bsf	11,6	;volatile
  1184  03C2                     l1247:
  1185                           
  1186                           ;MiniProyecto_I2C.c: 134:     PIR1bits.RCIF = 0;
  1187  03C2  1283               	bcf	3,5	;RP0=0, select bank0
  1188  03C3  1303               	bcf	3,6	;RP1=0, select bank0
  1189  03C4  128C               	bcf	12,5	;volatile
  1190  03C5                     l86:
  1191  03C5  0008               	return
  1192  03C6                     __end_of_setup:
  1193                           
  1194                           	psect	text2
  1195  0357                     __ptext2:	
  1196 ;; *************** function _I2C_Master_Init *****************
  1197 ;; Defined at:
  1198 ;;		line 19 in file "I2C.c"
  1199 ;; Parameters:    Size  Location     Type
  1200 ;;  c               4    6[BANK0 ] const unsigned long 
  1201 ;; Auto vars:     Size  Location     Type
  1202 ;;		None
  1203 ;; Return value:  Size  Location     Type
  1204 ;;                  1    wreg      void 
  1205 ;; Registers used:
  1206 ;;		wreg, status,2, status,0, pclath, cstack
  1207 ;; Tracked objects:
  1208 ;;		On entry : 0/0
  1209 ;;		On exit  : 0/0
  1210 ;;		Unchanged: 0/0
  1211 ;; Data sizes:     COMMON   BANK0   BANK1   BANK3   BANK2
  1212 ;;      Params:         0       4       0       0       0
  1213 ;;      Locals:         0       0       0       0       0
  1214 ;;      Temps:          0       4       0       0       0
  1215 ;;      Totals:         0       8       0       0       0
  1216 ;;Total ram usage:        8 bytes
  1217 ;; Hardware stack levels used:    1
  1218 ;; Hardware stack levels required when called:    3
  1219 ;; This function calls:
  1220 ;;		___lldiv
  1221 ;; This function is called by:
  1222 ;;		_setup
  1223 ;; This function uses a non-reentrant model
  1224 ;;
  1225                           
  1226                           
  1227                           ;psect for function _I2C_Master_Init
  1228  0357                     _I2C_Master_Init:
  1229  0357                     l1167:	
  1230                           ;incstack = 0
  1231                           ; Regs used in _I2C_Master_Init: [wreg+status,2+status,0+pclath+cstack]
  1232                           
  1233                           
  1234                           ;I2C.c: 21:     SSPCON2 = 0;
  1235  0357  1683               	bsf	3,5	;RP0=1, select bank1
  1236  0358  1303               	bcf	3,6	;RP1=0, select bank1
  1237  0359  0191               	clrf	17	;volatile
  1238  035A                     l1169:
  1239                           
  1240                           ;I2C.c: 22:     SSPADD = (4000000 / (4 * c)) - 1;
  1241  035A  1283               	bcf	3,5	;RP0=0, select bank0
  1242  035B  1303               	bcf	3,6	;RP1=0, select bank0
  1243  035C  0826               	movf	I2C_Master_Init@c,w
  1244  035D  00AA               	movwf	??_I2C_Master_Init
  1245  035E  0827               	movf	I2C_Master_Init@c+1,w
  1246  035F  00AB               	movwf	??_I2C_Master_Init+1
  1247  0360  0828               	movf	I2C_Master_Init@c+2,w
  1248  0361  00AC               	movwf	??_I2C_Master_Init+2
  1249  0362  0829               	movf	I2C_Master_Init@c+3,w
  1250  0363  00AD               	movwf	??_I2C_Master_Init+3
  1251  0364  3002               	movlw	2
  1252  0365                     u555:
  1253  0365  1003               	clrc
  1254  0366  0DAA               	rlf	??_I2C_Master_Init,f
  1255  0367  0DAB               	rlf	??_I2C_Master_Init+1,f
  1256  0368  0DAC               	rlf	??_I2C_Master_Init+2,f
  1257  0369  0DAD               	rlf	??_I2C_Master_Init+3,f
  1258  036A                     u550:
  1259  036A  3EFF               	addlw	-1
  1260  036B  1D03               	skipz
  1261  036C  2B65               	goto	u555
  1262  036D  082D               	movf	??_I2C_Master_Init+3,w
  1263  036E  00F6               	movwf	___lldiv@divisor+3
  1264  036F  082C               	movf	??_I2C_Master_Init+2,w
  1265  0370  00F5               	movwf	___lldiv@divisor+2
  1266  0371  082B               	movf	??_I2C_Master_Init+1,w
  1267  0372  00F4               	movwf	___lldiv@divisor+1
  1268  0373  082A               	movf	??_I2C_Master_Init,w
  1269  0374  00F3               	movwf	___lldiv@divisor
  1270  0375  3000               	movlw	0
  1271  0376  00FA               	movwf	___lldiv@dividend+3
  1272  0377  303D               	movlw	61
  1273  0378  00F9               	movwf	___lldiv@dividend+2
  1274  0379  3009               	movlw	9
  1275  037A  00F8               	movwf	___lldiv@dividend+1
  1276  037B  3000               	movlw	0
  1277  037C  00F7               	movwf	___lldiv@dividend
  1278  037D  120A  118A  2262  120A  118A  	fcall	___lldiv
  1279  0382  0873               	movf	?___lldiv,w
  1280  0383  3EFF               	addlw	255
  1281  0384  1683               	bsf	3,5	;RP0=1, select bank1
  1282  0385  1303               	bcf	3,6	;RP1=0, select bank1
  1283  0386  0093               	movwf	19	;volatile
  1284  0387                     l1171:
  1285                           
  1286                           ;I2C.c: 23:     SSPSTAT = 0;
  1287  0387  0194               	clrf	20	;volatile
  1288  0388                     l1173:
  1289                           
  1290                           ;I2C.c: 24:     TRISCbits.TRISC3 = 1;
  1291  0388  1587               	bsf	7,3	;volatile
  1292  0389                     l1175:
  1293                           
  1294                           ;I2C.c: 25:     TRISCbits.TRISC4 = 1;
  1295  0389  1607               	bsf	7,4	;volatile
  1296  038A                     l1177:
  1297                           
  1298                           ;I2C.c: 26:     SSPCON = 0b00101000;
  1299  038A  3028               	movlw	40
  1300  038B  1283               	bcf	3,5	;RP0=0, select bank0
  1301  038C  1303               	bcf	3,6	;RP1=0, select bank0
  1302  038D  0094               	movwf	20	;volatile
  1303  038E                     l143:
  1304  038E  0008               	return
  1305  038F                     __end_of_I2C_Master_Init:
  1306                           
  1307                           	psect	text3
  1308  0262                     __ptext3:	
  1309 ;; *************** function ___lldiv *****************
  1310 ;; Defined at:
  1311 ;;		line 5 in file "C:\Program Files\Microchip\xc8\v2.31\pic\sources\c90\common\__lldiv.c"
  1312 ;; Parameters:    Size  Location     Type
  1313 ;;  divisor         4    3[COMMON] unsigned long 
  1314 ;;  dividend        4    7[COMMON] unsigned long 
  1315 ;; Auto vars:     Size  Location     Type
  1316 ;;  quotient        4    1[BANK0 ] unsigned long 
  1317 ;;  counter         1    5[BANK0 ] unsigned char 
  1318 ;; Return value:  Size  Location     Type
  1319 ;;                  4    3[COMMON] unsigned long 
  1320 ;; Registers used:
  1321 ;;		wreg, status,2, status,0
  1322 ;; Tracked objects:
  1323 ;;		On entry : 0/0
  1324 ;;		On exit  : 0/0
  1325 ;;		Unchanged: 0/0
  1326 ;; Data sizes:     COMMON   BANK0   BANK1   BANK3   BANK2
  1327 ;;      Params:         8       0       0       0       0
  1328 ;;      Locals:         0       5       0       0       0
  1329 ;;      Temps:          0       1       0       0       0
  1330 ;;      Totals:         8       6       0       0       0
  1331 ;;Total ram usage:       14 bytes
  1332 ;; Hardware stack levels used:    1
  1333 ;; Hardware stack levels required when called:    2
  1334 ;; This function calls:
  1335 ;;		Nothing
  1336 ;; This function is called by:
  1337 ;;		_I2C_Master_Init
  1338 ;; This function uses a non-reentrant model
  1339 ;;
  1340                           
  1341                           
  1342                           ;psect for function ___lldiv
  1343  0262                     ___lldiv:
  1344  0262                     l1143:	
  1345                           ;incstack = 0
  1346                           ; Regs used in ___lldiv: [wreg+status,2+status,0]
  1347                           
  1348  0262  3000               	movlw	0
  1349  0263  1283               	bcf	3,5	;RP0=0, select bank0
  1350  0264  1303               	bcf	3,6	;RP1=0, select bank0
  1351  0265  00A4               	movwf	___lldiv@quotient+3
  1352  0266  3000               	movlw	0
  1353  0267  00A3               	movwf	___lldiv@quotient+2
  1354  0268  3000               	movlw	0
  1355  0269  00A2               	movwf	___lldiv@quotient+1
  1356  026A  3000               	movlw	0
  1357  026B  00A1               	movwf	___lldiv@quotient
  1358  026C  0876               	movf	___lldiv@divisor+3,w
  1359  026D  0475               	iorwf	___lldiv@divisor+2,w
  1360  026E  0474               	iorwf	___lldiv@divisor+1,w
  1361  026F  0473               	iorwf	___lldiv@divisor,w
  1362  0270  1903               	skipnz
  1363  0271  2A73               	goto	u481
  1364  0272  2A74               	goto	u480
  1365  0273                     u481:
  1366  0273  2AC1               	goto	l1163
  1367  0274                     u480:
  1368  0274                     l1145:
  1369  0274  01A5               	clrf	___lldiv@counter
  1370  0275  0AA5               	incf	___lldiv@counter,f
  1371  0276  2A84               	goto	l1149
  1372  0277                     l1147:
  1373  0277  3001               	movlw	1
  1374  0278  00A0               	movwf	??___lldiv
  1375  0279                     u495:
  1376  0279  1003               	clrc
  1377  027A  0DF3               	rlf	___lldiv@divisor,f
  1378  027B  0DF4               	rlf	___lldiv@divisor+1,f
  1379  027C  0DF5               	rlf	___lldiv@divisor+2,f
  1380  027D  0DF6               	rlf	___lldiv@divisor+3,f
  1381  027E  0BA0               	decfsz	??___lldiv,f
  1382  027F  2A79               	goto	u495
  1383  0280  3001               	movlw	1
  1384  0281  00A0               	movwf	??___lldiv
  1385  0282  0820               	movf	??___lldiv,w
  1386  0283  07A5               	addwf	___lldiv@counter,f
  1387  0284                     l1149:
  1388  0284  1FF6               	btfss	___lldiv@divisor+3,7
  1389  0285  2A87               	goto	u501
  1390  0286  2A88               	goto	u500
  1391  0287                     u501:
  1392  0287  2A77               	goto	l1147
  1393  0288                     u500:
  1394  0288                     l1151:
  1395  0288  3001               	movlw	1
  1396  0289  00A0               	movwf	??___lldiv
  1397  028A                     u515:
  1398  028A  1003               	clrc
  1399  028B  0DA1               	rlf	___lldiv@quotient,f
  1400  028C  0DA2               	rlf	___lldiv@quotient+1,f
  1401  028D  0DA3               	rlf	___lldiv@quotient+2,f
  1402  028E  0DA4               	rlf	___lldiv@quotient+3,f
  1403  028F  0BA0               	decfsz	??___lldiv,f
  1404  0290  2A8A               	goto	u515
  1405  0291                     l1153:
  1406  0291  0876               	movf	___lldiv@divisor+3,w
  1407  0292  027A               	subwf	___lldiv@dividend+3,w
  1408  0293  1D03               	skipz
  1409  0294  2A9F               	goto	u525
  1410  0295  0875               	movf	___lldiv@divisor+2,w
  1411  0296  0279               	subwf	___lldiv@dividend+2,w
  1412  0297  1D03               	skipz
  1413  0298  2A9F               	goto	u525
  1414  0299  0874               	movf	___lldiv@divisor+1,w
  1415  029A  0278               	subwf	___lldiv@dividend+1,w
  1416  029B  1D03               	skipz
  1417  029C  2A9F               	goto	u525
  1418  029D  0873               	movf	___lldiv@divisor,w
  1419  029E  0277               	subwf	___lldiv@dividend,w
  1420  029F                     u525:
  1421  029F  1C03               	skipc
  1422  02A0  2AA2               	goto	u521
  1423  02A1  2AA3               	goto	u520
  1424  02A2                     u521:
  1425  02A2  2AB2               	goto	l1159
  1426  02A3                     u520:
  1427  02A3                     l1155:
  1428  02A3  0873               	movf	___lldiv@divisor,w
  1429  02A4  02F7               	subwf	___lldiv@dividend,f
  1430  02A5  0874               	movf	___lldiv@divisor+1,w
  1431  02A6  1C03               	skipc
  1432  02A7  0F74               	incfsz	___lldiv@divisor+1,w
  1433  02A8  02F8               	subwf	___lldiv@dividend+1,f
  1434  02A9  0875               	movf	___lldiv@divisor+2,w
  1435  02AA  1C03               	skipc
  1436  02AB  0F75               	incfsz	___lldiv@divisor+2,w
  1437  02AC  02F9               	subwf	___lldiv@dividend+2,f
  1438  02AD  0876               	movf	___lldiv@divisor+3,w
  1439  02AE  1C03               	skipc
  1440  02AF  0F76               	incfsz	___lldiv@divisor+3,w
  1441  02B0  02FA               	subwf	___lldiv@dividend+3,f
  1442  02B1                     l1157:
  1443  02B1  1421               	bsf	___lldiv@quotient,0
  1444  02B2                     l1159:
  1445  02B2  3001               	movlw	1
  1446  02B3                     u535:
  1447  02B3  1003               	clrc
  1448  02B4  0CF6               	rrf	___lldiv@divisor+3,f
  1449  02B5  0CF5               	rrf	___lldiv@divisor+2,f
  1450  02B6  0CF4               	rrf	___lldiv@divisor+1,f
  1451  02B7  0CF3               	rrf	___lldiv@divisor,f
  1452  02B8  3EFF               	addlw	-1
  1453  02B9  1D03               	skipz
  1454  02BA  2AB3               	goto	u535
  1455  02BB                     l1161:
  1456  02BB  3001               	movlw	1
  1457  02BC  02A5               	subwf	___lldiv@counter,f
  1458  02BD  1D03               	btfss	3,2
  1459  02BE  2AC0               	goto	u541
  1460  02BF  2AC1               	goto	u540
  1461  02C0                     u541:
  1462  02C0  2A88               	goto	l1151
  1463  02C1                     u540:
  1464  02C1                     l1163:
  1465  02C1  0824               	movf	___lldiv@quotient+3,w
  1466  02C2  00F6               	movwf	?___lldiv+3
  1467  02C3  0823               	movf	___lldiv@quotient+2,w
  1468  02C4  00F5               	movwf	?___lldiv+2
  1469  02C5  0822               	movf	___lldiv@quotient+1,w
  1470  02C6  00F4               	movwf	?___lldiv+1
  1471  02C7  0821               	movf	___lldiv@quotient,w
  1472  02C8  00F3               	movwf	?___lldiv
  1473  02C9                     l335:
  1474  02C9  0008               	return
  1475  02CA                     __end_of___lldiv:
  1476                           
  1477                           	psect	text4
  1478  01E6                     __ptext4:	
  1479 ;; *************** function ___fltol *****************
  1480 ;; Defined at:
  1481 ;;		line 43 in file "C:\Program Files\Microchip\xc8\v2.31\pic\sources\c90\common\fltol.c"
  1482 ;; Parameters:    Size  Location     Type
  1483 ;;  f1              4   13[BANK0 ] unsigned long 
  1484 ;; Auto vars:     Size  Location     Type
  1485 ;;  exp1            1   23[BANK0 ] unsigned char 
  1486 ;;  sign1           1   22[BANK0 ] unsigned char 
  1487 ;; Return value:  Size  Location     Type
  1488 ;;                  4   13[BANK0 ] long 
  1489 ;; Registers used:
  1490 ;;		wreg, status,2, status,0
  1491 ;; Tracked objects:
  1492 ;;		On entry : 0/0
  1493 ;;		On exit  : 0/0
  1494 ;;		Unchanged: 0/0
  1495 ;; Data sizes:     COMMON   BANK0   BANK1   BANK3   BANK2
  1496 ;;      Params:         0       4       0       0       0
  1497 ;;      Locals:         0       2       0       0       0
  1498 ;;      Temps:          0       5       0       0       0
  1499 ;;      Totals:         0      11       0       0       0
  1500 ;;Total ram usage:       11 bytes
  1501 ;; Hardware stack levels used:    1
  1502 ;; Hardware stack levels required when called:    2
  1503 ;; This function calls:
  1504 ;;		Nothing
  1505 ;; This function is called by:
  1506 ;;		_main
  1507 ;; This function uses a non-reentrant model
  1508 ;;
  1509                           
  1510                           
  1511                           ;psect for function ___fltol
  1512  01E6                     ___fltol:
  1513  01E6                     l1287:	
  1514                           ;incstack = 0
  1515                           ; Regs used in ___fltol: [wreg+status,2+status,0]
  1516                           
  1517  01E6  1003               	clrc
  1518  01E7  1283               	bcf	3,5	;RP0=0, select bank0
  1519  01E8  1303               	bcf	3,6	;RP1=0, select bank0
  1520  01E9  0D2F               	rlf	___fltol@f1+2,w
  1521  01EA  0D30               	rlf	___fltol@f1+3,w
  1522  01EB  00B1               	movwf	??___fltol
  1523  01EC  0831               	movf	??___fltol,w
  1524  01ED  00B7               	movwf	___fltol@exp1
  1525  01EE  0837               	movf	___fltol@exp1,w
  1526  01EF  1D03               	btfss	3,2
  1527  01F0  29F2               	goto	u731
  1528  01F1  29F3               	goto	u730
  1529  01F2                     u731:
  1530  01F2  29FC               	goto	l1293
  1531  01F3                     u730:
  1532  01F3                     l1289:
  1533  01F3  3000               	movlw	0
  1534  01F4  00B0               	movwf	?___fltol+3
  1535  01F5  3000               	movlw	0
  1536  01F6  00AF               	movwf	?___fltol+2
  1537  01F7  3000               	movlw	0
  1538  01F8  00AE               	movwf	?___fltol+1
  1539  01F9  3000               	movlw	0
  1540  01FA  00AD               	movwf	?___fltol
  1541  01FB  2A61               	goto	l485
  1542  01FC                     l1293:
  1543  01FC  082D               	movf	___fltol@f1,w
  1544  01FD  00B1               	movwf	??___fltol
  1545  01FE  082E               	movf	___fltol@f1+1,w
  1546  01FF  00B2               	movwf	??___fltol+1
  1547  0200  082F               	movf	___fltol@f1+2,w
  1548  0201  00B3               	movwf	??___fltol+2
  1549  0202  0830               	movf	___fltol@f1+3,w
  1550  0203  00B4               	movwf	??___fltol+3
  1551  0204  301F               	movlw	31
  1552  0205                     u745:
  1553  0205  1003               	clrc
  1554  0206  0CB4               	rrf	??___fltol+3,f
  1555  0207  0CB3               	rrf	??___fltol+2,f
  1556  0208  0CB2               	rrf	??___fltol+1,f
  1557  0209  0CB1               	rrf	??___fltol,f
  1558  020A                     u740:
  1559  020A  3EFF               	addlw	-1
  1560  020B  1D03               	skipz
  1561  020C  2A05               	goto	u745
  1562  020D  0831               	movf	??___fltol,w
  1563  020E  00B5               	movwf	??___fltol+4
  1564  020F  0835               	movf	??___fltol+4,w
  1565  0210  00B6               	movwf	___fltol@sign1
  1566  0211                     l1295:
  1567  0211  17AF               	bsf	___fltol@f1+2,7
  1568  0212                     l1297:
  1569  0212  30FF               	movlw	255
  1570  0213  05AD               	andwf	___fltol@f1,f
  1571  0214  30FF               	movlw	255
  1572  0215  05AE               	andwf	___fltol@f1+1,f
  1573  0216  30FF               	movlw	255
  1574  0217  05AF               	andwf	___fltol@f1+2,f
  1575  0218  3000               	movlw	0
  1576  0219  05B0               	andwf	___fltol@f1+3,f
  1577  021A                     l1299:
  1578  021A  3096               	movlw	150
  1579  021B  02B7               	subwf	___fltol@exp1,f
  1580  021C                     l1301:
  1581  021C  1FB7               	btfss	___fltol@exp1,7
  1582  021D  2A1F               	goto	u751
  1583  021E  2A20               	goto	u750
  1584  021F                     u751:
  1585  021F  2A3A               	goto	l1311
  1586  0220                     u750:
  1587  0220                     l1303:
  1588  0220  0837               	movf	___fltol@exp1,w
  1589  0221  3A80               	xorlw	128
  1590  0222  3E97               	addlw	151
  1591  0223  1803               	skipnc
  1592  0224  2A26               	goto	u761
  1593  0225  2A27               	goto	u760
  1594  0226                     u761:
  1595  0226  2A28               	goto	l1309
  1596  0227                     u760:
  1597  0227  29F3               	goto	l1289
  1598  0228                     l1309:
  1599  0228  3001               	movlw	1
  1600  0229                     u775:
  1601  0229  1003               	clrc
  1602  022A  0CB0               	rrf	___fltol@f1+3,f
  1603  022B  0CAF               	rrf	___fltol@f1+2,f
  1604  022C  0CAE               	rrf	___fltol@f1+1,f
  1605  022D  0CAD               	rrf	___fltol@f1,f
  1606  022E  3EFF               	addlw	-1
  1607  022F  1D03               	skipz
  1608  0230  2A29               	goto	u775
  1609  0231  3001               	movlw	1
  1610  0232  00B1               	movwf	??___fltol
  1611  0233  0831               	movf	??___fltol,w
  1612  0234  07B7               	addwf	___fltol@exp1,f
  1613  0235  1D03               	btfss	3,2
  1614  0236  2A38               	goto	u781
  1615  0237  2A39               	goto	u780
  1616  0238                     u781:
  1617  0238  2A28               	goto	l1309
  1618  0239                     u780:
  1619  0239  2A51               	goto	l1319
  1620  023A                     l1311:
  1621  023A  3020               	movlw	32
  1622  023B  0237               	subwf	___fltol@exp1,w
  1623  023C  1C03               	skipc
  1624  023D  2A3F               	goto	u791
  1625  023E  2A40               	goto	u790
  1626  023F                     u791:
  1627  023F  2A4C               	goto	l492
  1628  0240                     u790:
  1629  0240  29F3               	goto	l1289
  1630  0241                     l1317:
  1631  0241  3001               	movlw	1
  1632  0242  00B1               	movwf	??___fltol
  1633  0243                     u805:
  1634  0243  1003               	clrc
  1635  0244  0DAD               	rlf	___fltol@f1,f
  1636  0245  0DAE               	rlf	___fltol@f1+1,f
  1637  0246  0DAF               	rlf	___fltol@f1+2,f
  1638  0247  0DB0               	rlf	___fltol@f1+3,f
  1639  0248  0BB1               	decfsz	??___fltol,f
  1640  0249  2A43               	goto	u805
  1641  024A  3001               	movlw	1
  1642  024B  02B7               	subwf	___fltol@exp1,f
  1643  024C                     l492:
  1644  024C  0837               	movf	___fltol@exp1,w
  1645  024D  1D03               	btfss	3,2
  1646  024E  2A50               	goto	u811
  1647  024F  2A51               	goto	u810
  1648  0250                     u811:
  1649  0250  2A41               	goto	l1317
  1650  0251                     u810:
  1651  0251                     l1319:
  1652  0251  0836               	movf	___fltol@sign1,w
  1653  0252  1903               	btfsc	3,2
  1654  0253  2A55               	goto	u821
  1655  0254  2A56               	goto	u820
  1656  0255                     u821:
  1657  0255  2A61               	goto	l495
  1658  0256                     u820:
  1659  0256                     l1321:
  1660  0256  09AD               	comf	___fltol@f1,f
  1661  0257  09AE               	comf	___fltol@f1+1,f
  1662  0258  09AF               	comf	___fltol@f1+2,f
  1663  0259  09B0               	comf	___fltol@f1+3,f
  1664  025A  0AAD               	incf	___fltol@f1,f
  1665  025B  1903               	skipnz
  1666  025C  0AAE               	incf	___fltol@f1+1,f
  1667  025D  1903               	skipnz
  1668  025E  0AAF               	incf	___fltol@f1+2,f
  1669  025F  1903               	skipnz
  1670  0260  0AB0               	incf	___fltol@f1+3,f
  1671  0261                     l495:
  1672  0261                     l485:
  1673  0261  0008               	return
  1674  0262                     __end_of___fltol:
  1675                           
  1676                           	psect	text5
  1677  04FB                     __ptext5:	
  1678 ;; *************** function _UART_send_char *****************
  1679 ;; Defined at:
  1680 ;;		line 37 in file "USART.c"
  1681 ;; Parameters:    Size  Location     Type
  1682 ;;  bt              1    wreg     unsigned char 
  1683 ;; Auto vars:     Size  Location     Type
  1684 ;;  bt              1    3[COMMON] unsigned char 
  1685 ;; Return value:  Size  Location     Type
  1686 ;;                  1    wreg      void 
  1687 ;; Registers used:
  1688 ;;		wreg
  1689 ;; Tracked objects:
  1690 ;;		On entry : 0/0
  1691 ;;		On exit  : 0/0
  1692 ;;		Unchanged: 0/0
  1693 ;; Data sizes:     COMMON   BANK0   BANK1   BANK3   BANK2
  1694 ;;      Params:         0       0       0       0       0
  1695 ;;      Locals:         1       0       0       0       0
  1696 ;;      Temps:          0       0       0       0       0
  1697 ;;      Totals:         1       0       0       0       0
  1698 ;;Total ram usage:        1 bytes
  1699 ;; Hardware stack levels used:    1
  1700 ;; Hardware stack levels required when called:    2
  1701 ;; This function calls:
  1702 ;;		Nothing
  1703 ;; This function is called by:
  1704 ;;		_main
  1705 ;;		_UART_send_string
  1706 ;; This function uses a non-reentrant model
  1707 ;;
  1708                           
  1709                           
  1710                           ;psect for function _UART_send_char
  1711  04FB                     _UART_send_char:
  1712                           
  1713                           ;incstack = 0
  1714                           ; Regs used in _UART_send_char: [wreg]
  1715                           ;UART_send_char@bt stored from wreg
  1716  04FB  00F3               	movwf	UART_send_char@bt
  1717  04FC                     l1269:
  1718  04FC                     l197:	
  1719                           ;USART.c: 38:     while (!TXIF);
  1720                           
  1721  04FC  1283               	bcf	3,5	;RP0=0, select bank0
  1722  04FD  1303               	bcf	3,6	;RP1=0, select bank0
  1723  04FE  1E0C               	btfss	12,4	;volatile
  1724  04FF  2D01               	goto	u721
  1725  0500  2D02               	goto	u720
  1726  0501                     u721:
  1727  0501  2CFC               	goto	l197
  1728  0502                     u720:
  1729  0502                     l1271:
  1730                           
  1731                           ;USART.c: 39:     TXREG = bt;
  1732  0502  0873               	movf	UART_send_char@bt,w
  1733  0503  0099               	movwf	25	;volatile
  1734  0504                     l200:
  1735  0504  0008               	return
  1736  0505                     __end_of_UART_send_char:
  1737                           
  1738                           	psect	text6
  1739  0488                     __ptext6:	
  1740 ;; *************** function _UART_config *****************
  1741 ;; Defined at:
  1742 ;;		line 4 in file "USART.c"
  1743 ;; Parameters:    Size  Location     Type
  1744 ;;		None
  1745 ;; Auto vars:     Size  Location     Type
  1746 ;;		None
  1747 ;; Return value:  Size  Location     Type
  1748 ;;                  1    wreg      void 
  1749 ;; Registers used:
  1750 ;;		wreg, status,2
  1751 ;; Tracked objects:
  1752 ;;		On entry : 0/0
  1753 ;;		On exit  : 0/0
  1754 ;;		Unchanged: 0/0
  1755 ;; Data sizes:     COMMON   BANK0   BANK1   BANK3   BANK2
  1756 ;;      Params:         0       0       0       0       0
  1757 ;;      Locals:         0       0       0       0       0
  1758 ;;      Temps:          0       0       0       0       0
  1759 ;;      Totals:         0       0       0       0       0
  1760 ;;Total ram usage:        0 bytes
  1761 ;; Hardware stack levels used:    1
  1762 ;; Hardware stack levels required when called:    2
  1763 ;; This function calls:
  1764 ;;		Nothing
  1765 ;; This function is called by:
  1766 ;;		_main
  1767 ;; This function uses a non-reentrant model
  1768 ;;
  1769                           
  1770                           
  1771                           ;psect for function _UART_config
  1772  0488                     _UART_config:
  1773  0488                     l1259:	
  1774                           ;incstack = 0
  1775                           ; Regs used in _UART_config: [wreg+status,2]
  1776                           
  1777                           
  1778                           ;USART.c: 8:     TXSTAbits.TXEN = 1;
  1779  0488  1683               	bsf	3,5	;RP0=1, select bank1
  1780  0489  1303               	bcf	3,6	;RP1=0, select bank1
  1781  048A  1698               	bsf	24,5	;volatile
  1782                           
  1783                           ;USART.c: 9:     TXSTAbits.SYNC = 0;
  1784  048B  1218               	bcf	24,4	;volatile
  1785                           
  1786                           ;USART.c: 10:     RCSTAbits.SPEN = 1;
  1787  048C  1283               	bcf	3,5	;RP0=0, select bank0
  1788  048D  1303               	bcf	3,6	;RP1=0, select bank0
  1789  048E  1798               	bsf	24,7	;volatile
  1790                           
  1791                           ;USART.c: 11:     TRISCbits.TRISC6 = 0;
  1792  048F  1683               	bsf	3,5	;RP0=1, select bank1
  1793  0490  1303               	bcf	3,6	;RP1=0, select bank1
  1794  0491  1307               	bcf	7,6	;volatile
  1795                           
  1796                           ;USART.c: 12:     TXSTAbits.TX9 = 0;
  1797  0492  1318               	bcf	24,6	;volatile
  1798                           
  1799                           ;USART.c: 13:     PIE1bits.TXIE = 0;
  1800  0493  120C               	bcf	12,4	;volatile
  1801                           
  1802                           ;USART.c: 18:     RCSTAbits.CREN = 1;
  1803  0494  1283               	bcf	3,5	;RP0=0, select bank0
  1804  0495  1303               	bcf	3,6	;RP1=0, select bank0
  1805  0496  1618               	bsf	24,4	;volatile
  1806                           
  1807                           ;USART.c: 19:     PIE1bits.RCIE = 1;
  1808  0497  1683               	bsf	3,5	;RP0=1, select bank1
  1809  0498  1303               	bcf	3,6	;RP1=0, select bank1
  1810  0499  168C               	bsf	12,5	;volatile
  1811                           
  1812                           ;USART.c: 20:     RCSTAbits.RX9 = 0;
  1813  049A  1283               	bcf	3,5	;RP0=0, select bank0
  1814  049B  1303               	bcf	3,6	;RP1=0, select bank0
  1815  049C  1318               	bcf	24,6	;volatile
  1816                           
  1817                           ;USART.c: 21:     TRISCbits.TRISC7 = 1;
  1818  049D  1683               	bsf	3,5	;RP0=1, select bank1
  1819  049E  1303               	bcf	3,6	;RP1=0, select bank1
  1820  049F  1787               	bsf	7,7	;volatile
  1821  04A0                     l1261:
  1822                           
  1823                           ;USART.c: 26:     SPBRG = 51;
  1824  04A0  3033               	movlw	51
  1825  04A1  0099               	movwf	25	;volatile
  1826  04A2                     l1263:
  1827                           
  1828                           ;USART.c: 27:     SPBRGH = 0;
  1829  04A2  019A               	clrf	26	;volatile
  1830  04A3                     l1265:
  1831                           
  1832                           ;USART.c: 31:     TXSTAbits.BRGH = 1;
  1833  04A3  1518               	bsf	24,2	;volatile
  1834  04A4                     l1267:
  1835                           
  1836                           ;USART.c: 32:     BAUDCTLbits.BRG16 = 0;
  1837  04A4  1683               	bsf	3,5	;RP0=1, select bank3
  1838  04A5  1703               	bsf	3,6	;RP1=1, select bank3
  1839  04A6  1187               	bcf	7,3	;volatile
  1840  04A7                     l194:
  1841  04A7  0008               	return
  1842  04A8                     __end_of_UART_config:
  1843                           
  1844                           	psect	text7
  1845  02CA                     __ptext7:	
  1846 ;; *************** function _MPU6050_init *****************
  1847 ;; Defined at:
  1848 ;;		line 78 in file "MPU6050.c"
  1849 ;; Parameters:    Size  Location     Type
  1850 ;;		None
  1851 ;; Auto vars:     Size  Location     Type
  1852 ;;		None
  1853 ;; Return value:  Size  Location     Type
  1854 ;;                  1    wreg      void 
  1855 ;; Registers used:
  1856 ;;		wreg, status,2, status,0, pclath, cstack
  1857 ;; Tracked objects:
  1858 ;;		On entry : 0/0
  1859 ;;		On exit  : 0/0
  1860 ;;		Unchanged: 0/0
  1861 ;; Data sizes:     COMMON   BANK0   BANK1   BANK3   BANK2
  1862 ;;      Params:         0       0       0       0       0
  1863 ;;      Locals:         0       0       0       0       0
  1864 ;;      Temps:          2       0       0       0       0
  1865 ;;      Totals:         2       0       0       0       0
  1866 ;;Total ram usage:        2 bytes
  1867 ;; Hardware stack levels used:    1
  1868 ;; Hardware stack levels required when called:    5
  1869 ;; This function calls:
  1870 ;;		_MPU6050_write
  1871 ;; This function is called by:
  1872 ;;		_main
  1873 ;; This function uses a non-reentrant model
  1874 ;;
  1875                           
  1876                           
  1877                           ;psect for function _MPU6050_init
  1878  02CA                     _MPU6050_init:
  1879  02CA                     l1249:	
  1880                           ;incstack = 0
  1881                           ; Regs used in _MPU6050_init: [wreg+status,2+status,0+pclath+cstack]
  1882                           
  1883                           
  1884                           ;MPU6050.c: 79:     MPU6050_write(0x6B, 0x80);
  1885  02CA  306B               	movlw	107
  1886  02CB  00F5               	movwf	MPU6050_write@add
  1887  02CC  3000               	movlw	0
  1888  02CD  00F6               	movwf	MPU6050_write@add+1
  1889  02CE  3080               	movlw	128
  1890  02CF  00F7               	movwf	MPU6050_write@data
  1891  02D0  3000               	movlw	0
  1892  02D1  00F8               	movwf	MPU6050_write@data+1
  1893  02D2  120A  118A  2462  120A  118A  	fcall	_MPU6050_write
  1894  02D7                     l1251:
  1895                           
  1896                           ;MPU6050.c: 80:     _delay((unsigned long)((100)*(4000000/4000.0)));
  1897  02D7  3082               	movlw	130
  1898  02D8  00FA               	movwf	??_MPU6050_init+1
  1899  02D9  30DD               	movlw	221
  1900  02DA  00F9               	movwf	??_MPU6050_init
  1901  02DB                     u967:
  1902  02DB  0BF9               	decfsz	??_MPU6050_init,f
  1903  02DC  2ADB               	goto	u967
  1904  02DD  0BFA               	decfsz	??_MPU6050_init+1,f
  1905  02DE  2ADB               	goto	u967
  1906  02DF  2AE0               	nop2
  1907  02E0                     l1253:
  1908                           
  1909                           ;MPU6050.c: 81:     MPU6050_write(0x6B, 0x00);
  1910  02E0  306B               	movlw	107
  1911  02E1  00F5               	movwf	MPU6050_write@add
  1912  02E2  3000               	movlw	0
  1913  02E3  00F6               	movwf	MPU6050_write@add+1
  1914  02E4  3000               	movlw	0
  1915  02E5  00F7               	movwf	MPU6050_write@data
  1916  02E6  00F8               	movwf	MPU6050_write@data+1
  1917  02E7  120A  118A  2462  120A  118A  	fcall	_MPU6050_write
  1918                           
  1919                           ;MPU6050.c: 82:     _delay((unsigned long)((100)*(4000000/4000.0)));
  1920  02EC  3082               	movlw	130
  1921  02ED  00FA               	movwf	??_MPU6050_init+1
  1922  02EE  30DD               	movlw	221
  1923  02EF  00F9               	movwf	??_MPU6050_init
  1924  02F0                     u977:
  1925  02F0  0BF9               	decfsz	??_MPU6050_init,f
  1926  02F1  2AF0               	goto	u977
  1927  02F2  0BFA               	decfsz	??_MPU6050_init+1,f
  1928  02F3  2AF0               	goto	u977
  1929  02F4  2AF5               	nop2
  1930  02F5                     l1255:
  1931                           
  1932                           ;MPU6050.c: 83:     MPU6050_write(0x1A, 0x01);
  1933  02F5  301A               	movlw	26
  1934  02F6  00F5               	movwf	MPU6050_write@add
  1935  02F7  3000               	movlw	0
  1936  02F8  00F6               	movwf	MPU6050_write@add+1
  1937  02F9  3001               	movlw	1
  1938  02FA  00F7               	movwf	MPU6050_write@data
  1939  02FB  3000               	movlw	0
  1940  02FC  00F8               	movwf	MPU6050_write@data+1
  1941  02FD  120A  118A  2462  120A  118A  	fcall	_MPU6050_write
  1942  0302                     l1257:
  1943                           
  1944                           ;MPU6050.c: 84:     _delay((unsigned long)((10)*(4000000/4000.0)));
  1945  0302  300D               	movlw	13
  1946  0303  00FA               	movwf	??_MPU6050_init+1
  1947  0304  30FB               	movlw	251
  1948  0305  00F9               	movwf	??_MPU6050_init
  1949  0306                     u987:
  1950  0306  0BF9               	decfsz	??_MPU6050_init,f
  1951  0307  2B06               	goto	u987
  1952  0308  0BFA               	decfsz	??_MPU6050_init+1,f
  1953  0309  2B06               	goto	u987
  1954  030A  2B0B               	nop2
  1955                           
  1956                           ;MPU6050.c: 85:     MPU6050_write(0x1B, 0x00);
  1957  030B  301B               	movlw	27
  1958  030C  00F5               	movwf	MPU6050_write@add
  1959  030D  3000               	movlw	0
  1960  030E  00F6               	movwf	MPU6050_write@add+1
  1961  030F  3000               	movlw	0
  1962  0310  00F7               	movwf	MPU6050_write@data
  1963  0311  00F8               	movwf	MPU6050_write@data+1
  1964  0312  120A  118A  2462  120A  118A  	fcall	_MPU6050_write
  1965  0317                     l105:
  1966  0317  0008               	return
  1967  0318                     __end_of_MPU6050_init:
  1968                           
  1969                           	psect	text8
  1970  0462                     __ptext8:	
  1971 ;; *************** function _MPU6050_write *****************
  1972 ;; Defined at:
  1973 ;;		line 39 in file "MPU6050.c"
  1974 ;; Parameters:    Size  Location     Type
  1975 ;;  add             2    5[COMMON] int 
  1976 ;;  data            2    7[COMMON] int 
  1977 ;; Auto vars:     Size  Location     Type
  1978 ;;		None
  1979 ;; Return value:  Size  Location     Type
  1980 ;;                  1    wreg      void 
  1981 ;; Registers used:
  1982 ;;		wreg, status,2, status,0, pclath, cstack
  1983 ;; Tracked objects:
  1984 ;;		On entry : 0/0
  1985 ;;		On exit  : 0/0
  1986 ;;		Unchanged: 0/0
  1987 ;; Data sizes:     COMMON   BANK0   BANK1   BANK3   BANK2
  1988 ;;      Params:         4       0       0       0       0
  1989 ;;      Locals:         0       0       0       0       0
  1990 ;;      Temps:          0       0       0       0       0
  1991 ;;      Totals:         4       0       0       0       0
  1992 ;;Total ram usage:        4 bytes
  1993 ;; Hardware stack levels used:    1
  1994 ;; Hardware stack levels required when called:    4
  1995 ;; This function calls:
  1996 ;;		_I2C_Master_Start
  1997 ;;		_I2C_Master_Stop
  1998 ;;		_I2C_Master_Write
  1999 ;; This function is called by:
  2000 ;;		_MPU6050_init
  2001 ;; This function uses a non-reentrant model
  2002 ;;
  2003                           
  2004                           
  2005                           ;psect for function _MPU6050_write
  2006  0462                     _MPU6050_write:
  2007  0462                     l1179:	
  2008                           ;incstack = 0
  2009                           ; Regs used in _MPU6050_write: [wreg+status,2+status,0+pclath+cstack]
  2010                           
  2011                           
  2012                           ;MPU6050.c: 46:     I2C_Master_Start();
  2013  0462  120A  118A  2518  120A  118A  	fcall	_I2C_Master_Start
  2014                           
  2015                           ;MPU6050.c: 47:     I2C_Master_Write(0xD0);
  2016  0467  30D0               	movlw	208
  2017  0468  00F3               	movwf	I2C_Master_Write@d
  2018  0469  3000               	movlw	0
  2019  046A  00F4               	movwf	I2C_Master_Write@d+1
  2020  046B  120A  118A  2505  120A  118A  	fcall	_I2C_Master_Write
  2021                           
  2022                           ;MPU6050.c: 48:     I2C_Master_Write(add);
  2023  0470  0876               	movf	MPU6050_write@add+1,w
  2024  0471  00F4               	movwf	I2C_Master_Write@d+1
  2025  0472  0875               	movf	MPU6050_write@add,w
  2026  0473  00F3               	movwf	I2C_Master_Write@d
  2027  0474  120A  118A  2505  120A  118A  	fcall	_I2C_Master_Write
  2028                           
  2029                           ;MPU6050.c: 49:     I2C_Master_Write(data);
  2030  0479  0878               	movf	MPU6050_write@data+1,w
  2031  047A  00F4               	movwf	I2C_Master_Write@d+1
  2032  047B  0877               	movf	MPU6050_write@data,w
  2033  047C  00F3               	movwf	I2C_Master_Write@d
  2034  047D  120A  118A  2505  120A  118A  	fcall	_I2C_Master_Write
  2035                           
  2036                           ;MPU6050.c: 50:     I2C_Master_Stop();
  2037  0482  120A  118A  250F  120A  118A  	fcall	_I2C_Master_Stop
  2038  0487                     l99:
  2039  0487  0008               	return
  2040  0488                     __end_of_MPU6050_write:
  2041                           
  2042                           	psect	text9
  2043  03C6                     __ptext9:	
  2044 ;; *************** function _MPU6050_get_Az *****************
  2045 ;; Defined at:
  2046 ;;		line 117 in file "MPU6050.c"
  2047 ;; Parameters:    Size  Location     Type
  2048 ;;		None
  2049 ;; Auto vars:     Size  Location     Type
  2050 ;;  A_data_z        2   11[BANK0 ] char [2]
  2051 ;;  accel_value_    2    0        int 
  2052 ;; Return value:  Size  Location     Type
  2053 ;;                  4    6[BANK0 ] float 
  2054 ;; Registers used:
  2055 ;;		wreg, status,2, status,0, pclath, cstack
  2056 ;; Tracked objects:
  2057 ;;		On entry : 0/0
  2058 ;;		On exit  : 0/0
  2059 ;;		Unchanged: 0/0
  2060 ;; Data sizes:     COMMON   BANK0   BANK1   BANK3   BANK2
  2061 ;;      Params:         0       4       0       0       0
  2062 ;;      Locals:         0       2       0       0       0
  2063 ;;      Temps:          0       1       0       0       0
  2064 ;;      Totals:         0       7       0       0       0
  2065 ;;Total ram usage:        7 bytes
  2066 ;; Hardware stack levels used:    1
  2067 ;; Hardware stack levels required when called:    5
  2068 ;; This function calls:
  2069 ;;		_MPU6050_read
  2070 ;;		___xxtofl
  2071 ;; This function is called by:
  2072 ;;		_main
  2073 ;; This function uses a non-reentrant model
  2074 ;;
  2075                           
  2076                           
  2077                           ;psect for function _MPU6050_get_Az
  2078  03C6                     _MPU6050_get_Az:
  2079  03C6                     l1283:	
  2080                           ;incstack = 0
  2081                           ; Regs used in _MPU6050_get_Az: [wreg+status,2+status,0+pclath+cstack]
  2082                           
  2083                           
  2084                           ;MPU6050.c: 118: int8_t A_data_z[2];;MPU6050.c: 119: int16_t accel_value_z;;MPU6050.c: 1
      +                          20: A_data_z[0] = MPU6050_read(0x3F);
  2085  03C6  303F               	movlw	63
  2086  03C7  00F9               	movwf	MPU6050_read@add
  2087  03C8  3000               	movlw	0
  2088  03C9  00FA               	movwf	MPU6050_read@add+1
  2089  03CA  120A  118A  2318  120A  118A  	fcall	_MPU6050_read
  2090  03CF  0879               	movf	?_MPU6050_read,w
  2091  03D0  1283               	bcf	3,5	;RP0=0, select bank0
  2092  03D1  1303               	bcf	3,6	;RP1=0, select bank0
  2093  03D2  00AA               	movwf	??_MPU6050_get_Az
  2094  03D3  082A               	movf	??_MPU6050_get_Az,w
  2095  03D4  00AB               	movwf	MPU6050_get_Az@A_data_z
  2096                           
  2097                           ;MPU6050.c: 121: A_data_z[1] = MPU6050_read(0x40);
  2098  03D5  3040               	movlw	64
  2099  03D6  00F9               	movwf	MPU6050_read@add
  2100  03D7  3000               	movlw	0
  2101  03D8  00FA               	movwf	MPU6050_read@add+1
  2102  03D9  120A  118A  2318  120A  118A  	fcall	_MPU6050_read
  2103  03DE  0879               	movf	?_MPU6050_read,w
  2104  03DF  1283               	bcf	3,5	;RP0=0, select bank0
  2105  03E0  1303               	bcf	3,6	;RP1=0, select bank0
  2106  03E1  00AA               	movwf	??_MPU6050_get_Az
  2107  03E2  082A               	movf	??_MPU6050_get_Az,w
  2108  03E3  00AC               	movwf	MPU6050_get_Az@A_data_z+1
  2109                           
  2110                           ;MPU6050.c: 124: return A_data_z[0];
  2111  03E4  082B               	movf	MPU6050_get_Az@A_data_z,w
  2112  03E5  00F3               	movwf	___xxtofl@val
  2113  03E6  3980               	andlw	128
  2114  03E7  1D03               	skipz
  2115  03E8  30FF               	movlw	255
  2116  03E9  00F4               	movwf	___xxtofl@val+1
  2117  03EA  00F5               	movwf	___xxtofl@val+2
  2118  03EB  00F6               	movwf	___xxtofl@val+3
  2119  03EC  3001               	movlw	1
  2120  03ED  120A  118A  212A  120A  118A  	fcall	___xxtofl
  2121  03F2  0876               	movf	?___xxtofl+3,w
  2122  03F3  1283               	bcf	3,5	;RP0=0, select bank0
  2123  03F4  1303               	bcf	3,6	;RP1=0, select bank0
  2124  03F5  00A9               	movwf	?_MPU6050_get_Az+3
  2125  03F6  0875               	movf	?___xxtofl+2,w
  2126  03F7  00A8               	movwf	?_MPU6050_get_Az+2
  2127  03F8  0874               	movf	?___xxtofl+1,w
  2128  03F9  00A7               	movwf	?_MPU6050_get_Az+1
  2129  03FA  0873               	movf	?___xxtofl,w
  2130  03FB  00A6               	movwf	?_MPU6050_get_Az
  2131  03FC                     l114:
  2132  03FC  0008               	return
  2133  03FD                     __end_of_MPU6050_get_Az:
  2134                           
  2135                           	psect	text10
  2136  03FD                     __ptext10:	
  2137 ;; *************** function _MPU6050_get_Ay *****************
  2138 ;; Defined at:
  2139 ;;		line 105 in file "MPU6050.c"
  2140 ;; Parameters:    Size  Location     Type
  2141 ;;		None
  2142 ;; Auto vars:     Size  Location     Type
  2143 ;;  A_data_y        2   11[BANK0 ] char [2]
  2144 ;;  accel_value_    2    0        int 
  2145 ;; Return value:  Size  Location     Type
  2146 ;;                  4    6[BANK0 ] float 
  2147 ;; Registers used:
  2148 ;;		wreg, status,2, status,0, pclath, cstack
  2149 ;; Tracked objects:
  2150 ;;		On entry : 0/0
  2151 ;;		On exit  : 0/0
  2152 ;;		Unchanged: 0/0
  2153 ;; Data sizes:     COMMON   BANK0   BANK1   BANK3   BANK2
  2154 ;;      Params:         0       4       0       0       0
  2155 ;;      Locals:         0       2       0       0       0
  2156 ;;      Temps:          0       1       0       0       0
  2157 ;;      Totals:         0       7       0       0       0
  2158 ;;Total ram usage:        7 bytes
  2159 ;; Hardware stack levels used:    1
  2160 ;; Hardware stack levels required when called:    5
  2161 ;; This function calls:
  2162 ;;		_MPU6050_read
  2163 ;;		___xxtofl
  2164 ;; This function is called by:
  2165 ;;		_main
  2166 ;; This function uses a non-reentrant model
  2167 ;;
  2168                           
  2169                           
  2170                           ;psect for function _MPU6050_get_Ay
  2171  03FD                     _MPU6050_get_Ay:
  2172  03FD                     l1279:	
  2173                           ;incstack = 0
  2174                           ; Regs used in _MPU6050_get_Ay: [wreg+status,2+status,0+pclath+cstack]
  2175                           
  2176                           
  2177                           ;MPU6050.c: 106: int8_t A_data_y[2];;MPU6050.c: 107: int16_t accel_value_y;;MPU6050.c: 1
      +                          08: A_data_y[0] = MPU6050_read(0x3D);
  2178  03FD  303D               	movlw	61
  2179  03FE  00F9               	movwf	MPU6050_read@add
  2180  03FF  3000               	movlw	0
  2181  0400  00FA               	movwf	MPU6050_read@add+1
  2182  0401  120A  118A  2318  120A  118A  	fcall	_MPU6050_read
  2183  0406  0879               	movf	?_MPU6050_read,w
  2184  0407  1283               	bcf	3,5	;RP0=0, select bank0
  2185  0408  1303               	bcf	3,6	;RP1=0, select bank0
  2186  0409  00AA               	movwf	??_MPU6050_get_Ay
  2187  040A  082A               	movf	??_MPU6050_get_Ay,w
  2188  040B  00AB               	movwf	MPU6050_get_Ay@A_data_y
  2189                           
  2190                           ;MPU6050.c: 109: A_data_y[1] = MPU6050_read(0x3E);
  2191  040C  303E               	movlw	62
  2192  040D  00F9               	movwf	MPU6050_read@add
  2193  040E  3000               	movlw	0
  2194  040F  00FA               	movwf	MPU6050_read@add+1
  2195  0410  120A  118A  2318  120A  118A  	fcall	_MPU6050_read
  2196  0415  0879               	movf	?_MPU6050_read,w
  2197  0416  1283               	bcf	3,5	;RP0=0, select bank0
  2198  0417  1303               	bcf	3,6	;RP1=0, select bank0
  2199  0418  00AA               	movwf	??_MPU6050_get_Ay
  2200  0419  082A               	movf	??_MPU6050_get_Ay,w
  2201  041A  00AC               	movwf	MPU6050_get_Ay@A_data_y+1
  2202                           
  2203                           ;MPU6050.c: 112: return A_data_y[0];
  2204  041B  082B               	movf	MPU6050_get_Ay@A_data_y,w
  2205  041C  00F3               	movwf	___xxtofl@val
  2206  041D  3980               	andlw	128
  2207  041E  1D03               	skipz
  2208  041F  30FF               	movlw	255
  2209  0420  00F4               	movwf	___xxtofl@val+1
  2210  0421  00F5               	movwf	___xxtofl@val+2
  2211  0422  00F6               	movwf	___xxtofl@val+3
  2212  0423  3001               	movlw	1
  2213  0424  120A  118A  212A  120A  118A  	fcall	___xxtofl
  2214  0429  0876               	movf	?___xxtofl+3,w
  2215  042A  1283               	bcf	3,5	;RP0=0, select bank0
  2216  042B  1303               	bcf	3,6	;RP1=0, select bank0
  2217  042C  00A9               	movwf	?_MPU6050_get_Ay+3
  2218  042D  0875               	movf	?___xxtofl+2,w
  2219  042E  00A8               	movwf	?_MPU6050_get_Ay+2
  2220  042F  0874               	movf	?___xxtofl+1,w
  2221  0430  00A7               	movwf	?_MPU6050_get_Ay+1
  2222  0431  0873               	movf	?___xxtofl,w
  2223  0432  00A6               	movwf	?_MPU6050_get_Ay
  2224  0433                     l111:
  2225  0433  0008               	return
  2226  0434                     __end_of_MPU6050_get_Ay:
  2227                           
  2228                           	psect	text11
  2229  012A                     __ptext11:	
  2230 ;; *************** function ___xxtofl *****************
  2231 ;; Defined at:
  2232 ;;		line 10 in file "C:\Program Files\Microchip\xc8\v2.31\pic\sources\c90\common\xxtofl.c"
  2233 ;; Parameters:    Size  Location     Type
  2234 ;;  sign            1    wreg     unsigned char 
  2235 ;;  val             4    3[COMMON] long 
  2236 ;; Auto vars:     Size  Location     Type
  2237 ;;  sign            1    0[BANK0 ] unsigned char 
  2238 ;;  arg             4    2[BANK0 ] unsigned long 
  2239 ;;  exp             1    1[BANK0 ] unsigned char 
  2240 ;; Return value:  Size  Location     Type
  2241 ;;                  4    3[COMMON] unsigned char 
  2242 ;; Registers used:
  2243 ;;		wreg, status,2, status,0
  2244 ;; Tracked objects:
  2245 ;;		On entry : 0/0
  2246 ;;		On exit  : 0/0
  2247 ;;		Unchanged: 0/0
  2248 ;; Data sizes:     COMMON   BANK0   BANK1   BANK3   BANK2
  2249 ;;      Params:         4       0       0       0       0
  2250 ;;      Locals:         0       6       0       0       0
  2251 ;;      Temps:          4       0       0       0       0
  2252 ;;      Totals:         8       6       0       0       0
  2253 ;;Total ram usage:       14 bytes
  2254 ;; Hardware stack levels used:    1
  2255 ;; Hardware stack levels required when called:    2
  2256 ;; This function calls:
  2257 ;;		Nothing
  2258 ;; This function is called by:
  2259 ;;		_MPU6050_get_Ay
  2260 ;;		_MPU6050_get_Az
  2261 ;; This function uses a non-reentrant model
  2262 ;;
  2263                           
  2264                           
  2265                           ;psect for function ___xxtofl
  2266  012A                     ___xxtofl:
  2267                           
  2268                           ;incstack = 0
  2269                           ; Regs used in ___xxtofl: [wreg+status,2+status,0]
  2270                           ;___xxtofl@sign stored from wreg
  2271  012A  1283               	bcf	3,5	;RP0=0, select bank0
  2272  012B  1303               	bcf	3,6	;RP1=0, select bank0
  2273  012C  00A0               	movwf	___xxtofl@sign
  2274  012D                     l1187:
  2275  012D  0820               	movf	___xxtofl@sign,w
  2276  012E  1903               	btfsc	3,2
  2277  012F  2931               	goto	u561
  2278  0130  2932               	goto	u560
  2279  0131                     u561:
  2280  0131  2946               	goto	l1193
  2281  0132                     u560:
  2282  0132                     l1189:
  2283  0132  1FF6               	btfss	___xxtofl@val+3,7
  2284  0133  2935               	goto	u571
  2285  0134  2936               	goto	u570
  2286  0135                     u571:
  2287  0135  2946               	goto	l1193
  2288  0136                     u570:
  2289  0136                     l1191:
  2290  0136  0973               	comf	___xxtofl@val,w
  2291  0137  00A2               	movwf	___xxtofl@arg
  2292  0138  0974               	comf	___xxtofl@val+1,w
  2293  0139  00A3               	movwf	___xxtofl@arg+1
  2294  013A  0975               	comf	___xxtofl@val+2,w
  2295  013B  00A4               	movwf	___xxtofl@arg+2
  2296  013C  0976               	comf	___xxtofl@val+3,w
  2297  013D  00A5               	movwf	___xxtofl@arg+3
  2298  013E  0AA2               	incf	___xxtofl@arg,f
  2299  013F  1903               	skipnz
  2300  0140  0AA3               	incf	___xxtofl@arg+1,f
  2301  0141  1903               	skipnz
  2302  0142  0AA4               	incf	___xxtofl@arg+2,f
  2303  0143  1903               	skipnz
  2304  0144  0AA5               	incf	___xxtofl@arg+3,f
  2305  0145  294E               	goto	l732
  2306  0146                     l1193:
  2307  0146  0876               	movf	___xxtofl@val+3,w
  2308  0147  00A5               	movwf	___xxtofl@arg+3
  2309  0148  0875               	movf	___xxtofl@val+2,w
  2310  0149  00A4               	movwf	___xxtofl@arg+2
  2311  014A  0874               	movf	___xxtofl@val+1,w
  2312  014B  00A3               	movwf	___xxtofl@arg+1
  2313  014C  0873               	movf	___xxtofl@val,w
  2314  014D  00A2               	movwf	___xxtofl@arg
  2315  014E                     l732:
  2316  014E  0876               	movf	___xxtofl@val+3,w
  2317  014F  0475               	iorwf	___xxtofl@val+2,w
  2318  0150  0474               	iorwf	___xxtofl@val+1,w
  2319  0151  0473               	iorwf	___xxtofl@val,w
  2320  0152  1D03               	skipz
  2321  0153  2955               	goto	u581
  2322  0154  2956               	goto	u580
  2323  0155                     u581:
  2324  0155  295F               	goto	l1199
  2325  0156                     u580:
  2326  0156                     l1195:
  2327  0156  3000               	movlw	0
  2328  0157  00F6               	movwf	?___xxtofl+3
  2329  0158  3000               	movlw	0
  2330  0159  00F5               	movwf	?___xxtofl+2
  2331  015A  3000               	movlw	0
  2332  015B  00F4               	movwf	?___xxtofl+1
  2333  015C  3000               	movlw	0
  2334  015D  00F3               	movwf	?___xxtofl
  2335  015E  29E5               	goto	l734
  2336  015F                     l1199:
  2337  015F  3096               	movlw	150
  2338  0160  00F7               	movwf	??___xxtofl
  2339  0161  0877               	movf	??___xxtofl,w
  2340  0162  00A1               	movwf	___xxtofl@exp
  2341  0163  2971               	goto	l1203
  2342  0164                     l1201:
  2343  0164  3001               	movlw	1
  2344  0165  00F7               	movwf	??___xxtofl
  2345  0166  0877               	movf	??___xxtofl,w
  2346  0167  07A1               	addwf	___xxtofl@exp,f
  2347  0168  3001               	movlw	1
  2348  0169                     u595:
  2349  0169  1003               	clrc
  2350  016A  0CA5               	rrf	___xxtofl@arg+3,f
  2351  016B  0CA4               	rrf	___xxtofl@arg+2,f
  2352  016C  0CA3               	rrf	___xxtofl@arg+1,f
  2353  016D  0CA2               	rrf	___xxtofl@arg,f
  2354  016E  3EFF               	addlw	-1
  2355  016F  1D03               	skipz
  2356  0170  2969               	goto	u595
  2357  0171                     l1203:
  2358  0171  30FE               	movlw	254
  2359  0172  0525               	andwf	___xxtofl@arg+3,w
  2360  0173  1D03               	btfss	3,2
  2361  0174  2976               	goto	u601
  2362  0175  2977               	goto	u600
  2363  0176                     u601:
  2364  0176  2964               	goto	l1201
  2365  0177                     u600:
  2366  0177  2993               	goto	l738
  2367  0178                     l1205:
  2368  0178  3001               	movlw	1
  2369  0179  00F7               	movwf	??___xxtofl
  2370  017A  0877               	movf	??___xxtofl,w
  2371  017B  07A1               	addwf	___xxtofl@exp,f
  2372  017C                     l1207:
  2373  017C  3001               	movlw	1
  2374  017D  07A2               	addwf	___xxtofl@arg,f
  2375  017E  3000               	movlw	0
  2376  017F  1803               	skipnc
  2377  0180  3001               	movlw	1
  2378  0181  07A3               	addwf	___xxtofl@arg+1,f
  2379  0182  3000               	movlw	0
  2380  0183  1803               	skipnc
  2381  0184  3001               	movlw	1
  2382  0185  07A4               	addwf	___xxtofl@arg+2,f
  2383  0186  3000               	movlw	0
  2384  0187  1803               	skipnc
  2385  0188  3001               	movlw	1
  2386  0189  07A5               	addwf	___xxtofl@arg+3,f
  2387  018A                     l1209:
  2388  018A  3001               	movlw	1
  2389  018B                     u615:
  2390  018B  1003               	clrc
  2391  018C  0CA5               	rrf	___xxtofl@arg+3,f
  2392  018D  0CA4               	rrf	___xxtofl@arg+2,f
  2393  018E  0CA3               	rrf	___xxtofl@arg+1,f
  2394  018F  0CA2               	rrf	___xxtofl@arg,f
  2395  0190  3EFF               	addlw	-1
  2396  0191  1D03               	skipz
  2397  0192  298B               	goto	u615
  2398  0193                     l738:
  2399  0193  30FF               	movlw	255
  2400  0194  0525               	andwf	___xxtofl@arg+3,w
  2401  0195  1D03               	btfss	3,2
  2402  0196  2998               	goto	u621
  2403  0197  2999               	goto	u620
  2404  0198                     u621:
  2405  0198  2978               	goto	l1205
  2406  0199                     u620:
  2407  0199  29A5               	goto	l1213
  2408  019A                     l1211:
  2409  019A  3001               	movlw	1
  2410  019B  02A1               	subwf	___xxtofl@exp,f
  2411  019C  3001               	movlw	1
  2412  019D  00F7               	movwf	??___xxtofl
  2413  019E                     u635:
  2414  019E  1003               	clrc
  2415  019F  0DA2               	rlf	___xxtofl@arg,f
  2416  01A0  0DA3               	rlf	___xxtofl@arg+1,f
  2417  01A1  0DA4               	rlf	___xxtofl@arg+2,f
  2418  01A2  0DA5               	rlf	___xxtofl@arg+3,f
  2419  01A3  0BF7               	decfsz	??___xxtofl,f
  2420  01A4  299E               	goto	u635
  2421  01A5                     l1213:
  2422  01A5  1BA4               	btfsc	___xxtofl@arg+2,7
  2423  01A6  29A8               	goto	u641
  2424  01A7  29A9               	goto	u640
  2425  01A8                     u641:
  2426  01A8  29AF               	goto	l745
  2427  01A9                     u640:
  2428  01A9                     l1215:
  2429  01A9  3002               	movlw	2
  2430  01AA  0221               	subwf	___xxtofl@exp,w
  2431  01AB  1803               	skipnc
  2432  01AC  29AE               	goto	u651
  2433  01AD  29AF               	goto	u650
  2434  01AE                     u651:
  2435  01AE  299A               	goto	l1211
  2436  01AF                     u650:
  2437  01AF                     l745:
  2438  01AF  1821               	btfsc	___xxtofl@exp,0
  2439  01B0  29B2               	goto	u661
  2440  01B1  29B3               	goto	u660
  2441  01B2                     u661:
  2442  01B2  29BB               	goto	l746
  2443  01B3                     u660:
  2444  01B3                     l1217:
  2445  01B3  30FF               	movlw	255
  2446  01B4  05A2               	andwf	___xxtofl@arg,f
  2447  01B5  30FF               	movlw	255
  2448  01B6  05A3               	andwf	___xxtofl@arg+1,f
  2449  01B7  307F               	movlw	127
  2450  01B8  05A4               	andwf	___xxtofl@arg+2,f
  2451  01B9  30FF               	movlw	255
  2452  01BA  05A5               	andwf	___xxtofl@arg+3,f
  2453  01BB                     l746:
  2454  01BB  1003               	clrc
  2455  01BC  0CA1               	rrf	___xxtofl@exp,f
  2456  01BD                     l1219:
  2457  01BD  0821               	movf	___xxtofl@exp,w
  2458  01BE  00F7               	movwf	??___xxtofl
  2459  01BF  01F8               	clrf	??___xxtofl+1
  2460  01C0  01F9               	clrf	??___xxtofl+2
  2461  01C1  01FA               	clrf	??___xxtofl+3
  2462  01C2  3018               	movlw	24
  2463  01C3                     u675:
  2464  01C3  1003               	clrc
  2465  01C4  0DF7               	rlf	??___xxtofl,f
  2466  01C5  0DF8               	rlf	??___xxtofl+1,f
  2467  01C6  0DF9               	rlf	??___xxtofl+2,f
  2468  01C7  0DFA               	rlf	??___xxtofl+3,f
  2469  01C8                     u670:
  2470  01C8  3EFF               	addlw	-1
  2471  01C9  1D03               	skipz
  2472  01CA  29C3               	goto	u675
  2473  01CB  0877               	movf	??___xxtofl,w
  2474  01CC  04A2               	iorwf	___xxtofl@arg,f
  2475  01CD  0878               	movf	??___xxtofl+1,w
  2476  01CE  04A3               	iorwf	___xxtofl@arg+1,f
  2477  01CF  0879               	movf	??___xxtofl+2,w
  2478  01D0  04A4               	iorwf	___xxtofl@arg+2,f
  2479  01D1  087A               	movf	??___xxtofl+3,w
  2480  01D2  04A5               	iorwf	___xxtofl@arg+3,f
  2481  01D3                     l1221:
  2482  01D3  0820               	movf	___xxtofl@sign,w
  2483  01D4  1903               	btfsc	3,2
  2484  01D5  29D7               	goto	u681
  2485  01D6  29D8               	goto	u680
  2486  01D7                     u681:
  2487  01D7  29DD               	goto	l1227
  2488  01D8                     u680:
  2489  01D8                     l1223:
  2490  01D8  1FF6               	btfss	___xxtofl@val+3,7
  2491  01D9  29DB               	goto	u691
  2492  01DA  29DC               	goto	u690
  2493  01DB                     u691:
  2494  01DB  29DD               	goto	l1227
  2495  01DC                     u690:
  2496  01DC                     l1225:
  2497  01DC  17A5               	bsf	___xxtofl@arg+3,7
  2498  01DD                     l1227:
  2499  01DD  0825               	movf	___xxtofl@arg+3,w
  2500  01DE  00F6               	movwf	?___xxtofl+3
  2501  01DF  0824               	movf	___xxtofl@arg+2,w
  2502  01E0  00F5               	movwf	?___xxtofl+2
  2503  01E1  0823               	movf	___xxtofl@arg+1,w
  2504  01E2  00F4               	movwf	?___xxtofl+1
  2505  01E3  0822               	movf	___xxtofl@arg,w
  2506  01E4  00F3               	movwf	?___xxtofl
  2507  01E5                     l734:
  2508  01E5  0008               	return
  2509  01E6                     __end_of___xxtofl:
  2510                           
  2511                           	psect	text12
  2512  04A8                     __ptext12:	
  2513 ;; *************** function _MPU6050_get_Ax *****************
  2514 ;; Defined at:
  2515 ;;		line 88 in file "MPU6050.c"
  2516 ;; Parameters:    Size  Location     Type
  2517 ;;		None
  2518 ;; Auto vars:     Size  Location     Type
  2519 ;;  A_data_x        2    3[BANK0 ] unsigned char [2]
  2520 ;;  accel_value_    2    0        int 
  2521 ;; Return value:  Size  Location     Type
  2522 ;;                  1    wreg      unsigned char 
  2523 ;; Registers used:
  2524 ;;		wreg, status,2, status,0, pclath, cstack
  2525 ;; Tracked objects:
  2526 ;;		On entry : 0/0
  2527 ;;		On exit  : 0/0
  2528 ;;		Unchanged: 0/0
  2529 ;; Data sizes:     COMMON   BANK0   BANK1   BANK3   BANK2
  2530 ;;      Params:         0       0       0       0       0
  2531 ;;      Locals:         0       2       0       0       0
  2532 ;;      Temps:          0       1       0       0       0
  2533 ;;      Totals:         0       3       0       0       0
  2534 ;;Total ram usage:        3 bytes
  2535 ;; Hardware stack levels used:    1
  2536 ;; Hardware stack levels required when called:    5
  2537 ;; This function calls:
  2538 ;;		_MPU6050_read
  2539 ;; This function is called by:
  2540 ;;		_main
  2541 ;; This function uses a non-reentrant model
  2542 ;;
  2543                           
  2544                           
  2545                           ;psect for function _MPU6050_get_Ax
  2546  04A8                     _MPU6050_get_Ax:
  2547  04A8                     l1273:	
  2548                           ;incstack = 0
  2549                           ; Regs used in _MPU6050_get_Ax: [wreg+status,2+status,0+pclath+cstack]
  2550                           
  2551                           
  2552                           ;MPU6050.c: 89:     uint8_t A_data_x[2];;MPU6050.c: 90:     int16_t accel_value_x;;MPU60
      +                          50.c: 91:     A_data_x[0] = MPU6050_read(0x3B);
  2553  04A8  303B               	movlw	59
  2554  04A9  00F9               	movwf	MPU6050_read@add
  2555  04AA  3000               	movlw	0
  2556  04AB  00FA               	movwf	MPU6050_read@add+1
  2557  04AC  120A  118A  2318  120A  118A  	fcall	_MPU6050_read
  2558  04B1  0879               	movf	?_MPU6050_read,w
  2559  04B2  1283               	bcf	3,5	;RP0=0, select bank0
  2560  04B3  1303               	bcf	3,6	;RP1=0, select bank0
  2561  04B4  00A2               	movwf	??_MPU6050_get_Ax
  2562  04B5  0822               	movf	??_MPU6050_get_Ax,w
  2563  04B6  00A3               	movwf	MPU6050_get_Ax@A_data_x
  2564                           
  2565                           ;MPU6050.c: 92:     A_data_x[1] = MPU6050_read(0x3C);
  2566  04B7  303C               	movlw	60
  2567  04B8  00F9               	movwf	MPU6050_read@add
  2568  04B9  3000               	movlw	0
  2569  04BA  00FA               	movwf	MPU6050_read@add+1
  2570  04BB  120A  118A  2318  120A  118A  	fcall	_MPU6050_read
  2571  04C0  0879               	movf	?_MPU6050_read,w
  2572  04C1  1283               	bcf	3,5	;RP0=0, select bank0
  2573  04C2  1303               	bcf	3,6	;RP1=0, select bank0
  2574  04C3  00A2               	movwf	??_MPU6050_get_Ax
  2575  04C4  0822               	movf	??_MPU6050_get_Ax,w
  2576  04C5  00A4               	movwf	MPU6050_get_Ax@A_data_x+1
  2577  04C6                     l1275:
  2578                           
  2579                           ;MPU6050.c: 101:     return A_data_x[0];
  2580  04C6  0823               	movf	MPU6050_get_Ax@A_data_x,w
  2581  04C7                     l108:
  2582  04C7  0008               	return
  2583  04C8                     __end_of_MPU6050_get_Ax:
  2584                           
  2585                           	psect	text13
  2586  0318                     __ptext13:	
  2587 ;; *************** function _MPU6050_read *****************
  2588 ;; Defined at:
  2589 ;;		line 54 in file "MPU6050.c"
  2590 ;; Parameters:    Size  Location     Type
  2591 ;;  add             2    9[COMMON] int 
  2592 ;; Auto vars:     Size  Location     Type
  2593 ;;  retval          2    0[BANK0 ] int 
  2594 ;; Return value:  Size  Location     Type
  2595 ;;                  2    9[COMMON] int 
  2596 ;; Registers used:
  2597 ;;		wreg, status,2, status,0, pclath, cstack
  2598 ;; Tracked objects:
  2599 ;;		On entry : 0/0
  2600 ;;		On exit  : 0/0
  2601 ;;		Unchanged: 0/0
  2602 ;; Data sizes:     COMMON   BANK0   BANK1   BANK3   BANK2
  2603 ;;      Params:         2       0       0       0       0
  2604 ;;      Locals:         0       2       0       0       0
  2605 ;;      Temps:          0       0       0       0       0
  2606 ;;      Totals:         2       2       0       0       0
  2607 ;;Total ram usage:        4 bytes
  2608 ;; Hardware stack levels used:    1
  2609 ;; Hardware stack levels required when called:    4
  2610 ;; This function calls:
  2611 ;;		_I2C_Master_Read
  2612 ;;		_I2C_Master_Start
  2613 ;;		_I2C_Master_Stop
  2614 ;;		_I2C_Master_Write
  2615 ;; This function is called by:
  2616 ;;		_MPU6050_get_Ax
  2617 ;;		_MPU6050_get_Ay
  2618 ;;		_MPU6050_get_Az
  2619 ;; This function uses a non-reentrant model
  2620 ;;
  2621                           
  2622                           
  2623                           ;psect for function _MPU6050_read
  2624  0318                     _MPU6050_read:
  2625  0318                     l1181:	
  2626                           ;incstack = 0
  2627                           ; Regs used in _MPU6050_read: [wreg+status,2+status,0+pclath+cstack]
  2628                           
  2629                           
  2630                           ;MPU6050.c: 66:     int retval;;MPU6050.c: 67:     I2C_Master_Start();
  2631  0318  120A  118A  2518  120A  118A  	fcall	_I2C_Master_Start
  2632                           
  2633                           ;MPU6050.c: 68:     I2C_Master_Write(0xD0);
  2634  031D  30D0               	movlw	208
  2635  031E  00F3               	movwf	I2C_Master_Write@d
  2636  031F  3000               	movlw	0
  2637  0320  00F4               	movwf	I2C_Master_Write@d+1
  2638  0321  120A  118A  2505  120A  118A  	fcall	_I2C_Master_Write
  2639                           
  2640                           ;MPU6050.c: 69:     I2C_Master_Write(add);
  2641  0326  087A               	movf	MPU6050_read@add+1,w
  2642  0327  00F4               	movwf	I2C_Master_Write@d+1
  2643  0328  0879               	movf	MPU6050_read@add,w
  2644  0329  00F3               	movwf	I2C_Master_Write@d
  2645  032A  120A  118A  2505  120A  118A  	fcall	_I2C_Master_Write
  2646                           
  2647                           ;MPU6050.c: 70:     I2C_Master_Start();
  2648  032F  120A  118A  2518  120A  118A  	fcall	_I2C_Master_Start
  2649                           
  2650                           ;MPU6050.c: 71:     I2C_Master_Write(0xD1);
  2651  0334  30D1               	movlw	209
  2652  0335  00F3               	movwf	I2C_Master_Write@d
  2653  0336  3000               	movlw	0
  2654  0337  00F4               	movwf	I2C_Master_Write@d+1
  2655  0338  120A  118A  2505  120A  118A  	fcall	_I2C_Master_Write
  2656                           
  2657                           ;MPU6050.c: 72:     retval = I2C_Master_Read(0);
  2658  033D  3000               	movlw	0
  2659  033E  00F3               	movwf	I2C_Master_Read@a
  2660  033F  00F4               	movwf	I2C_Master_Read@a+1
  2661  0340  120A  118A  2434  120A  118A  	fcall	_I2C_Master_Read
  2662  0345  0874               	movf	?_I2C_Master_Read+1,w
  2663  0346  1283               	bcf	3,5	;RP0=0, select bank0
  2664  0347  1303               	bcf	3,6	;RP1=0, select bank0
  2665  0348  00A1               	movwf	MPU6050_read@retval+1
  2666  0349  0873               	movf	?_I2C_Master_Read,w
  2667  034A  00A0               	movwf	MPU6050_read@retval
  2668                           
  2669                           ;MPU6050.c: 73:     I2C_Master_Stop();
  2670  034B  120A  118A  250F  120A  118A  	fcall	_I2C_Master_Stop
  2671  0350                     l1183:
  2672                           
  2673                           ;MPU6050.c: 74:     return retval;
  2674  0350  1283               	bcf	3,5	;RP0=0, select bank0
  2675  0351  1303               	bcf	3,6	;RP1=0, select bank0
  2676  0352  0821               	movf	MPU6050_read@retval+1,w
  2677  0353  00FA               	movwf	?_MPU6050_read+1
  2678  0354  0820               	movf	MPU6050_read@retval,w
  2679  0355  00F9               	movwf	?_MPU6050_read
  2680  0356                     l102:
  2681  0356  0008               	return
  2682  0357                     __end_of_MPU6050_read:
  2683                           
  2684                           	psect	text14
  2685  0505                     __ptext14:	
  2686 ;; *************** function _I2C_Master_Write *****************
  2687 ;; Defined at:
  2688 ;;		line 69 in file "I2C.c"
  2689 ;; Parameters:    Size  Location     Type
  2690 ;;  d               2    3[COMMON] unsigned int 
  2691 ;; Auto vars:     Size  Location     Type
  2692 ;;		None
  2693 ;; Return value:  Size  Location     Type
  2694 ;;                  1    wreg      void 
  2695 ;; Registers used:
  2696 ;;		wreg, status,2, status,0, pclath, cstack
  2697 ;; Tracked objects:
  2698 ;;		On entry : 0/0
  2699 ;;		On exit  : 0/0
  2700 ;;		Unchanged: 0/0
  2701 ;; Data sizes:     COMMON   BANK0   BANK1   BANK3   BANK2
  2702 ;;      Params:         2       0       0       0       0
  2703 ;;      Locals:         0       0       0       0       0
  2704 ;;      Temps:          0       0       0       0       0
  2705 ;;      Totals:         2       0       0       0       0
  2706 ;;Total ram usage:        2 bytes
  2707 ;; Hardware stack levels used:    1
  2708 ;; Hardware stack levels required when called:    3
  2709 ;; This function calls:
  2710 ;;		_I2C_Master_Wait
  2711 ;; This function is called by:
  2712 ;;		_MPU6050_write
  2713 ;;		_MPU6050_read
  2714 ;; This function uses a non-reentrant model
  2715 ;;
  2716                           
  2717                           
  2718                           ;psect for function _I2C_Master_Write
  2719  0505                     _I2C_Master_Write:
  2720  0505                     l1119:	
  2721                           ;incstack = 0
  2722                           ; Regs used in _I2C_Master_Write: [wreg+status,2+status,0+pclath+cstack]
  2723                           
  2724                           
  2725                           ;I2C.c: 70:     I2C_Master_Wait();
  2726  0505  120A  118A  24EE  120A  118A  	fcall	_I2C_Master_Wait
  2727  050A                     l1121:
  2728                           
  2729                           ;I2C.c: 71:     SSPBUF = d;
  2730  050A  0873               	movf	I2C_Master_Write@d,w
  2731  050B  1283               	bcf	3,5	;RP0=0, select bank0
  2732  050C  1303               	bcf	3,6	;RP1=0, select bank0
  2733  050D  0093               	movwf	19	;volatile
  2734  050E                     l161:
  2735  050E  0008               	return
  2736  050F                     __end_of_I2C_Master_Write:
  2737                           
  2738                           	psect	text15
  2739  050F                     __ptext15:	
  2740 ;; *************** function _I2C_Master_Stop *****************
  2741 ;; Defined at:
  2742 ;;		line 59 in file "I2C.c"
  2743 ;; Parameters:    Size  Location     Type
  2744 ;;		None
  2745 ;; Auto vars:     Size  Location     Type
  2746 ;;		None
  2747 ;; Return value:  Size  Location     Type
  2748 ;;                  1    wreg      void 
  2749 ;; Registers used:
  2750 ;;		wreg, status,2, status,0, pclath, cstack
  2751 ;; Tracked objects:
  2752 ;;		On entry : 0/0
  2753 ;;		On exit  : 0/0
  2754 ;;		Unchanged: 0/0
  2755 ;; Data sizes:     COMMON   BANK0   BANK1   BANK3   BANK2
  2756 ;;      Params:         0       0       0       0       0
  2757 ;;      Locals:         0       0       0       0       0
  2758 ;;      Temps:          0       0       0       0       0
  2759 ;;      Totals:         0       0       0       0       0
  2760 ;;Total ram usage:        0 bytes
  2761 ;; Hardware stack levels used:    1
  2762 ;; Hardware stack levels required when called:    3
  2763 ;; This function calls:
  2764 ;;		_I2C_Master_Wait
  2765 ;; This function is called by:
  2766 ;;		_MPU6050_write
  2767 ;;		_MPU6050_read
  2768 ;; This function uses a non-reentrant model
  2769 ;;
  2770                           
  2771                           
  2772                           ;psect for function _I2C_Master_Stop
  2773  050F                     _I2C_Master_Stop:
  2774  050F                     l1123:	
  2775                           ;incstack = 0
  2776                           ; Regs used in _I2C_Master_Stop: [wreg+status,2+status,0+pclath+cstack]
  2777                           
  2778                           
  2779                           ;I2C.c: 60:     I2C_Master_Wait();
  2780  050F  120A  118A  24EE  120A  118A  	fcall	_I2C_Master_Wait
  2781  0514                     l1125:
  2782                           
  2783                           ;I2C.c: 61:     SSPCON2bits.PEN = 1;
  2784  0514  1683               	bsf	3,5	;RP0=1, select bank1
  2785  0515  1303               	bcf	3,6	;RP1=0, select bank1
  2786  0516  1511               	bsf	17,2	;volatile
  2787  0517                     l158:
  2788  0517  0008               	return
  2789  0518                     __end_of_I2C_Master_Stop:
  2790                           
  2791                           	psect	text16
  2792  0518                     __ptext16:	
  2793 ;; *************** function _I2C_Master_Start *****************
  2794 ;; Defined at:
  2795 ;;		line 43 in file "I2C.c"
  2796 ;; Parameters:    Size  Location     Type
  2797 ;;		None
  2798 ;; Auto vars:     Size  Location     Type
  2799 ;;		None
  2800 ;; Return value:  Size  Location     Type
  2801 ;;                  1    wreg      void 
  2802 ;; Registers used:
  2803 ;;		wreg, status,2, status,0, pclath, cstack
  2804 ;; Tracked objects:
  2805 ;;		On entry : 0/0
  2806 ;;		On exit  : 0/0
  2807 ;;		Unchanged: 0/0
  2808 ;; Data sizes:     COMMON   BANK0   BANK1   BANK3   BANK2
  2809 ;;      Params:         0       0       0       0       0
  2810 ;;      Locals:         0       0       0       0       0
  2811 ;;      Temps:          0       0       0       0       0
  2812 ;;      Totals:         0       0       0       0       0
  2813 ;;Total ram usage:        0 bytes
  2814 ;; Hardware stack levels used:    1
  2815 ;; Hardware stack levels required when called:    3
  2816 ;; This function calls:
  2817 ;;		_I2C_Master_Wait
  2818 ;; This function is called by:
  2819 ;;		_MPU6050_write
  2820 ;;		_MPU6050_read
  2821 ;; This function uses a non-reentrant model
  2822 ;;
  2823                           
  2824                           
  2825                           ;psect for function _I2C_Master_Start
  2826  0518                     _I2C_Master_Start:
  2827  0518                     l1115:	
  2828                           ;incstack = 0
  2829                           ; Regs used in _I2C_Master_Start: [wreg+status,2+status,0+pclath+cstack]
  2830                           
  2831                           
  2832                           ;I2C.c: 44:     I2C_Master_Wait();
  2833  0518  120A  118A  24EE  120A  118A  	fcall	_I2C_Master_Wait
  2834  051D                     l1117:
  2835                           
  2836                           ;I2C.c: 45:     SSPCON2bits.SEN = 1;
  2837  051D  1683               	bsf	3,5	;RP0=1, select bank1
  2838  051E  1303               	bcf	3,6	;RP1=0, select bank1
  2839  051F  1411               	bsf	17,0	;volatile
  2840  0520                     l152:
  2841  0520  0008               	return
  2842  0521                     __end_of_I2C_Master_Start:
  2843                           
  2844                           	psect	text17
  2845  0434                     __ptext17:	
  2846 ;; *************** function _I2C_Master_Read *****************
  2847 ;; Defined at:
  2848 ;;		line 78 in file "I2C.c"
  2849 ;; Parameters:    Size  Location     Type
  2850 ;;  a               2    3[COMMON] unsigned short 
  2851 ;; Auto vars:     Size  Location     Type
  2852 ;;  temp            2    7[COMMON] unsigned short 
  2853 ;; Return value:  Size  Location     Type
  2854 ;;                  2    3[COMMON] unsigned short 
  2855 ;; Registers used:
  2856 ;;		wreg, status,2, status,0, pclath, cstack
  2857 ;; Tracked objects:
  2858 ;;		On entry : 0/0
  2859 ;;		On exit  : 0/0
  2860 ;;		Unchanged: 0/0
  2861 ;; Data sizes:     COMMON   BANK0   BANK1   BANK3   BANK2
  2862 ;;      Params:         2       0       0       0       0
  2863 ;;      Locals:         2       0       0       0       0
  2864 ;;      Temps:          2       0       0       0       0
  2865 ;;      Totals:         6       0       0       0       0
  2866 ;;Total ram usage:        6 bytes
  2867 ;; Hardware stack levels used:    1
  2868 ;; Hardware stack levels required when called:    3
  2869 ;; This function calls:
  2870 ;;		_I2C_Master_Wait
  2871 ;; This function is called by:
  2872 ;;		_MPU6050_read
  2873 ;; This function uses a non-reentrant model
  2874 ;;
  2875                           
  2876                           
  2877                           ;psect for function _I2C_Master_Read
  2878  0434                     _I2C_Master_Read:
  2879  0434                     l1127:	
  2880                           ;incstack = 0
  2881                           ; Regs used in _I2C_Master_Read: [wreg+status,2+status,0+pclath+cstack]
  2882                           
  2883                           
  2884                           ;I2C.c: 79:     unsigned short temp;;I2C.c: 80:     I2C_Master_Wait();
  2885  0434  120A  118A  24EE  120A  118A  	fcall	_I2C_Master_Wait
  2886  0439                     l1129:
  2887                           
  2888                           ;I2C.c: 81:     SSPCON2bits.RCEN = 1;
  2889  0439  1683               	bsf	3,5	;RP0=1, select bank1
  2890  043A  1303               	bcf	3,6	;RP1=0, select bank1
  2891  043B  1591               	bsf	17,3	;volatile
  2892                           
  2893                           ;I2C.c: 82:     I2C_Master_Wait();
  2894  043C  120A  118A  24EE  120A  118A  	fcall	_I2C_Master_Wait
  2895  0441                     l1131:
  2896                           
  2897                           ;I2C.c: 83:     temp = SSPBUF;
  2898  0441  1283               	bcf	3,5	;RP0=0, select bank0
  2899  0442  1303               	bcf	3,6	;RP1=0, select bank0
  2900  0443  0813               	movf	19,w	;volatile
  2901  0444  00F5               	movwf	??_I2C_Master_Read
  2902  0445  01F6               	clrf	??_I2C_Master_Read+1
  2903  0446  0875               	movf	??_I2C_Master_Read,w
  2904  0447  00F7               	movwf	I2C_Master_Read@temp
  2905  0448  0876               	movf	??_I2C_Master_Read+1,w
  2906  0449  00F8               	movwf	I2C_Master_Read@temp+1
  2907  044A                     l1133:
  2908                           
  2909                           ;I2C.c: 84:     I2C_Master_Wait();
  2910  044A  120A  118A  24EE  120A  118A  	fcall	_I2C_Master_Wait
  2911  044F                     l1135:
  2912                           
  2913                           ;I2C.c: 85:     if (a == 1) {
  2914  044F  0373               	decf	I2C_Master_Read@a,w
  2915  0450  0474               	iorwf	I2C_Master_Read@a+1,w
  2916  0451  1D03               	btfss	3,2
  2917  0452  2C54               	goto	u471
  2918  0453  2C55               	goto	u470
  2919  0454                     u471:
  2920  0454  2C59               	goto	l164
  2921  0455                     u470:
  2922  0455                     l1137:
  2923                           
  2924                           ;I2C.c: 86:         SSPCON2bits.ACKDT = 0;
  2925  0455  1683               	bsf	3,5	;RP0=1, select bank1
  2926  0456  1303               	bcf	3,6	;RP1=0, select bank1
  2927  0457  1291               	bcf	17,5	;volatile
  2928                           
  2929                           ;I2C.c: 87:     } else {
  2930  0458  2C5C               	goto	l165
  2931  0459                     l164:
  2932                           
  2933                           ;I2C.c: 88:         SSPCON2bits.ACKDT = 1;
  2934  0459  1683               	bsf	3,5	;RP0=1, select bank1
  2935  045A  1303               	bcf	3,6	;RP1=0, select bank1
  2936  045B  1691               	bsf	17,5	;volatile
  2937  045C                     l165:	
  2938                           ;I2C.c: 89:     }
  2939                           
  2940                           
  2941                           ;I2C.c: 90:     SSPCON2bits.ACKEN = 1;
  2942  045C  1611               	bsf	17,4	;volatile
  2943  045D                     l1139:
  2944                           
  2945                           ;I2C.c: 91:     return temp;
  2946  045D  0878               	movf	I2C_Master_Read@temp+1,w
  2947  045E  00F4               	movwf	?_I2C_Master_Read+1
  2948  045F  0877               	movf	I2C_Master_Read@temp,w
  2949  0460  00F3               	movwf	?_I2C_Master_Read
  2950  0461                     l166:
  2951  0461  0008               	return
  2952  0462                     __end_of_I2C_Master_Read:
  2953                           
  2954                           	psect	text18
  2955  04EE                     __ptext18:	
  2956 ;; *************** function _I2C_Master_Wait *****************
  2957 ;; Defined at:
  2958 ;;		line 36 in file "I2C.c"
  2959 ;; Parameters:    Size  Location     Type
  2960 ;;		None
  2961 ;; Auto vars:     Size  Location     Type
  2962 ;;		None
  2963 ;; Return value:  Size  Location     Type
  2964 ;;                  1    wreg      void 
  2965 ;; Registers used:
  2966 ;;		wreg, status,2
  2967 ;; Tracked objects:
  2968 ;;		On entry : 0/0
  2969 ;;		On exit  : 0/0
  2970 ;;		Unchanged: 0/0
  2971 ;; Data sizes:     COMMON   BANK0   BANK1   BANK3   BANK2
  2972 ;;      Params:         0       0       0       0       0
  2973 ;;      Locals:         0       0       0       0       0
  2974 ;;      Temps:          0       0       0       0       0
  2975 ;;      Totals:         0       0       0       0       0
  2976 ;;Total ram usage:        0 bytes
  2977 ;; Hardware stack levels used:    1
  2978 ;; Hardware stack levels required when called:    2
  2979 ;; This function calls:
  2980 ;;		Nothing
  2981 ;; This function is called by:
  2982 ;;		_I2C_Master_Start
  2983 ;;		_I2C_Master_Stop
  2984 ;;		_I2C_Master_Write
  2985 ;;		_I2C_Master_Read
  2986 ;;		_I2C_Master_RepeatedStart
  2987 ;; This function uses a non-reentrant model
  2988 ;;
  2989                           
  2990                           
  2991                           ;psect for function _I2C_Master_Wait
  2992  04EE                     _I2C_Master_Wait:
  2993  04EE                     l1111:	
  2994                           ;incstack = 0
  2995                           ; Regs used in _I2C_Master_Wait: [wreg+status,2]
  2996                           
  2997  04EE                     l146:	
  2998                           ;I2C.c: 37:     while ((SSPSTAT & 0x04) || (SSPCON2 & 0x1F));
  2999                           
  3000  04EE  1683               	bsf	3,5	;RP0=1, select bank1
  3001  04EF  1303               	bcf	3,6	;RP1=0, select bank1
  3002  04F0  1914               	btfsc	20,2	;volatile
  3003  04F1  2CF3               	goto	u451
  3004  04F2  2CF4               	goto	u450
  3005  04F3                     u451:
  3006  04F3  2CEE               	goto	l146
  3007  04F4                     u450:
  3008  04F4                     l1113:
  3009  04F4  0811               	movf	17,w	;volatile
  3010  04F5  391F               	andlw	31
  3011  04F6  1D03               	btfss	3,2
  3012  04F7  2CF9               	goto	u461
  3013  04F8  2CFA               	goto	u460
  3014  04F9                     u461:
  3015  04F9  2CEE               	goto	l146
  3016  04FA                     u460:
  3017  04FA                     l149:
  3018  04FA  0008               	return
  3019  04FB                     __end_of_I2C_Master_Wait:
  3020                           
  3021                           	psect	text19
  3022  04C8                     __ptext19:	
  3023 ;; *************** function _isr *****************
  3024 ;; Defined at:
  3025 ;;		line 50 in file "MiniProyecto_I2C.c"
  3026 ;; Parameters:    Size  Location     Type
  3027 ;;		None
  3028 ;; Auto vars:     Size  Location     Type
  3029 ;;		None
  3030 ;; Return value:  Size  Location     Type
  3031 ;;                  1    wreg      void 
  3032 ;; Registers used:
  3033 ;;		wreg, pclath, cstack
  3034 ;; Tracked objects:
  3035 ;;		On entry : 0/0
  3036 ;;		On exit  : 0/0
  3037 ;;		Unchanged: 0/0
  3038 ;; Data sizes:     COMMON   BANK0   BANK1   BANK3   BANK2
  3039 ;;      Params:         0       0       0       0       0
  3040 ;;      Locals:         0       0       0       0       0
  3041 ;;      Temps:          3       0       0       0       0
  3042 ;;      Totals:         3       0       0       0       0
  3043 ;;Total ram usage:        3 bytes
  3044 ;; Hardware stack levels used:    1
  3045 ;; Hardware stack levels required when called:    1
  3046 ;; This function calls:
  3047 ;;		_UART_get_char
  3048 ;; This function is called by:
  3049 ;;		Interrupt level 1
  3050 ;; This function uses a non-reentrant model
  3051 ;;
  3052                           
  3053                           
  3054                           ;psect for function _isr
  3055  04C8                     _isr:
  3056  04C8                     i1l1323:
  3057                           
  3058                           ;MiniProyecto_I2C.c: 51:         UART_send_char('a');
  3059  04C8  1283               	bcf	3,5	;RP0=0, select bank0
  3060  04C9  1303               	bcf	3,6	;RP1=0, select bank0
  3061  04CA  1E8C               	btfss	12,5	;volatile
  3062  04CB  2CCD               	goto	u83_21
  3063  04CC  2CCE               	goto	u83_20
  3064  04CD                     u83_21:
  3065  04CD  2CD9               	goto	i1l68
  3066  04CE                     u83_20:
  3067  04CE                     i1l1325:
  3068                           
  3069                           ;MiniProyecto_I2C.c: 52:         _delay((unsigned long)((200)*(4000000/4000.0)));
  3070  04CE  120A  118A  24E0  120A  118A  	fcall	_UART_get_char
  3071  04D3  00F0               	movwf	??_isr
  3072  04D4  0870               	movf	??_isr,w
  3073  04D5  1283               	bcf	3,5	;RP0=0, select bank0
  3074  04D6  1303               	bcf	3,6	;RP1=0, select bank0
  3075  04D7  00BB               	movwf	_valorRX
  3076  04D8                     i1l1327:
  3077                           
  3078                           ;MiniProyecto_I2C.c: 53:         UART_send_char(Ax);
  3079  04D8  128C               	bcf	12,5	;volatile
  3080  04D9                     i1l68:
  3081  04D9  0872               	movf	??_isr+2,w
  3082  04DA  008A               	movwf	10
  3083  04DB  0E71               	swapf	??_isr+1,w
  3084  04DC  0083               	movwf	3
  3085  04DD  0EFE               	swapf	btemp,f
  3086  04DE  0E7E               	swapf	btemp,w
  3087  04DF  0009               	retfie
  3088  04E0                     __end_of_isr:
  3089                           
  3090                           	psect	intentry
  3091  0004                     __pintentry:	
  3092                           ;incstack = 0
  3093                           ; Regs used in _isr: [wreg+pclath+cstack]
  3094                           
  3095  0004                     interrupt_function:
  3096  007E                     saved_w	set	btemp
  3097  0004  00FE               	movwf	btemp
  3098  0005  0E03               	swapf	3,w
  3099  0006  00F1               	movwf	??_isr+1
  3100  0007  080A               	movf	10,w
  3101  0008  00F2               	movwf	??_isr+2
  3102  0009  120A  118A  2CC8   	ljmp	_isr
  3103                           
  3104                           	psect	text20
  3105  04E0                     __ptext20:	
  3106 ;; *************** function _UART_get_char *****************
  3107 ;; Defined at:
  3108 ;;		line 47 in file "USART.c"
  3109 ;; Parameters:    Size  Location     Type
  3110 ;;		None
  3111 ;; Auto vars:     Size  Location     Type
  3112 ;;		None
  3113 ;; Return value:  Size  Location     Type
  3114 ;;                  1    wreg      unsigned char 
  3115 ;; Registers used:
  3116 ;;		wreg
  3117 ;; Tracked objects:
  3118 ;;		On entry : 0/0
  3119 ;;		On exit  : 0/0
  3120 ;;		Unchanged: 0/0
  3121 ;; Data sizes:     COMMON   BANK0   BANK1   BANK3   BANK2
  3122 ;;      Params:         0       0       0       0       0
  3123 ;;      Locals:         0       0       0       0       0
  3124 ;;      Temps:          0       0       0       0       0
  3125 ;;      Totals:         0       0       0       0       0
  3126 ;;Total ram usage:        0 bytes
  3127 ;; Hardware stack levels used:    1
  3128 ;; This function calls:
  3129 ;;		Nothing
  3130 ;; This function is called by:
  3131 ;;		_isr
  3132 ;; This function uses a non-reentrant model
  3133 ;;
  3134                           
  3135                           
  3136                           ;psect for function _UART_get_char
  3137  04E0                     _UART_get_char:
  3138  04E0                     i1l1231:	
  3139                           ;incstack = 0
  3140                           ; Regs used in _UART_get_char: [wreg]
  3141                           
  3142                           
  3143                           ;USART.c: 48:     if (RCSTAbits.OERR == 1)
  3144  04E0  1283               	bcf	3,5	;RP0=0, select bank0
  3145  04E1  1303               	bcf	3,6	;RP1=0, select bank0
  3146  04E2  1C98               	btfss	24,1	;volatile
  3147  04E3  2CE5               	goto	u70_21
  3148  04E4  2CE6               	goto	u70_20
  3149  04E5                     u70_21:
  3150  04E5  2CE8               	goto	i1l210
  3151  04E6                     u70_20:
  3152  04E6                     i1l1233:
  3153                           
  3154                           ;USART.c: 49:     {;USART.c: 50:         RCSTAbits.CREN = 0;
  3155  04E6  1218               	bcf	24,4	;volatile
  3156                           
  3157                           ;USART.c: 51:         RCSTAbits.CREN = 1;
  3158  04E7  1618               	bsf	24,4	;volatile
  3159  04E8                     i1l210:
  3160  04E8  1E8C               	btfss	12,5	;volatile
  3161  04E9  2CEB               	goto	u71_21
  3162  04EA  2CEC               	goto	u71_20
  3163  04EB                     u71_21:
  3164  04EB  2CE8               	goto	i1l210
  3165  04EC                     u71_20:
  3166  04EC                     i1l1235:
  3167                           
  3168                           ;USART.c: 55:     return RCREG;
  3169  04EC  081A               	movf	26,w	;volatile
  3170  04ED                     i1l213:
  3171  04ED  0008               	return
  3172  04EE                     __end_of_UART_get_char:
  3173  007E                     btemp	set	126	;btemp
  3174  007E                     wtemp0	set	126
  3175                           
  3176                           	psect	config
  3177                           
  3178                           ;Config register CONFIG1 @ 0x2007
  3179                           ;	Oscillator Selection bits
  3180                           ;	FOSC = INTRC_NOCLKOUT, INTOSCIO oscillator: I/O function on RA6/OSC2/CLKOUT pin, I/O f
      +                          unction on RA7/OSC1/CLKIN
  3181                           ;	Watchdog Timer Enable bit
  3182                           ;	WDTE = OFF, WDT disabled and can be enabled by SWDTEN bit of the WDTCON register
  3183                           ;	Power-up Timer Enable bit
  3184                           ;	PWRTE = OFF, PWRT disabled
  3185                           ;	RE3/MCLR pin function select bit
  3186                           ;	MCLRE = 0x1, unprogrammed default
  3187                           ;	Code Protection bit
  3188                           ;	CP = OFF, Program memory code protection is disabled
  3189                           ;	Data Code Protection bit
  3190                           ;	CPD = OFF, Data memory code protection is disabled
  3191                           ;	Brown Out Reset Selection bits
  3192                           ;	BOREN = ON, BOR enabled
  3193                           ;	Internal External Switchover bit
  3194                           ;	IESO = 0x1, unprogrammed default
  3195                           ;	Fail-Safe Clock Monitor Enabled bit
  3196                           ;	FCMEN = 0x1, unprogrammed default
  3197                           ;	Low Voltage Programming Enable bit
  3198                           ;	LVP = OFF, RB3 pin has digital I/O, HV on MCLR must be used for programming
  3199                           ;	In-Circuit Debugger Mode bit
  3200                           ;	DEBUG = 0x1, unprogrammed default
  3201  2007                     	org	8199
  3202  2007  2FF4               	dw	12276
  3203                           
  3204                           ;Config register CONFIG2 @ 0x2008
  3205                           ;	Brown-out Reset Selection bit
  3206                           ;	BOR4V = 0x1, unprogrammed default
  3207                           ;	Flash Program Memory Self Write Enable bits
  3208                           ;	WRT = OFF, Write protection off
  3209  2008                     	org	8200
  3210  2008  3FFF               	dw	16383

Data Sizes:
    Strings     0
    Constant    0
    Data        0
    BSS         5
    Persistent  0
    Stack       0

Auto Spaces:
    Space          Size  Autos    Used
    COMMON           14     11      11
    BANK0            80     27      32
    BANK1            80      0       0
    BANK3            96      0       0
    BANK2            96      0       0

Pointer List with Targets:

    None.

Critical Paths under _main in COMMON

    _main->_MPU6050_init
    _I2C_Master_Init->___lldiv
    _MPU6050_init->_MPU6050_write
    _MPU6050_write->_I2C_Master_Write
    _MPU6050_get_Az->_MPU6050_read
    _MPU6050_get_Az->___xxtofl
    _MPU6050_get_Ay->_MPU6050_read
    _MPU6050_get_Ay->___xxtofl
    _MPU6050_get_Ax->_MPU6050_read
    _MPU6050_read->_I2C_Master_Read

Critical Paths under _isr in COMMON

    None.

Critical Paths under _main in BANK0

    _main->___fltol
    _setup->_I2C_Master_Init
    _I2C_Master_Init->___lldiv
    ___fltol->_MPU6050_get_Ay
    ___fltol->_MPU6050_get_Az
    _MPU6050_get_Az->___xxtofl
    _MPU6050_get_Ay->___xxtofl
    _MPU6050_get_Ax->_MPU6050_read

Critical Paths under _isr in BANK0

    None.

Critical Paths under _main in BANK1

    None.

Critical Paths under _isr in BANK1

    None.

Critical Paths under _main in BANK3

    None.

Critical Paths under _isr in BANK3

    None.

Critical Paths under _main in BANK2

    None.

Critical Paths under _isr in BANK2

    None.

Call Graph Tables:

 ---------------------------------------------------------------------------------
 (Depth) Function   	        Calls       Base Space   Used Autos Params    Refs
 ---------------------------------------------------------------------------------
 (0) _main                                                 3     3      0    6334
                                             24 BANK0      3     3      0
                     _MPU6050_get_Ax
                     _MPU6050_get_Ay
                     _MPU6050_get_Az
                       _MPU6050_init
                        _UART_config
                     _UART_send_char
                            ___fltol
                              _setup
 ---------------------------------------------------------------------------------
 (1) _setup                                                0     0      0     412
                    _I2C_Master_Init
 ---------------------------------------------------------------------------------
 (2) _I2C_Master_Init                                      8     4      4     412
                                              6 BANK0      8     4      4
                            ___lldiv
 ---------------------------------------------------------------------------------
 (3) ___lldiv                                             14     6      8     314
                                              3 COMMON     8     0      8
                                              0 BANK0      6     6      0
 ---------------------------------------------------------------------------------
 (1) ___fltol                                             11     7      4     381
                                             13 BANK0     11     7      4
                     _MPU6050_get_Ay (ARG)
                     _MPU6050_get_Az (ARG)
 ---------------------------------------------------------------------------------
 (1) _UART_send_char                                       1     1      0      22
                                              3 COMMON     1     1      0
 ---------------------------------------------------------------------------------
 (1) _UART_config                                          0     0      0       0
 ---------------------------------------------------------------------------------
 (1) _MPU6050_init                                         2     2      0    1130
                                              9 COMMON     2     2      0
                      _MPU6050_write
 ---------------------------------------------------------------------------------
 (2) _MPU6050_write                                        4     0      4    1130
                                              5 COMMON     4     0      4
                   _I2C_Master_Start
                    _I2C_Master_Stop
                   _I2C_Master_Write
 ---------------------------------------------------------------------------------
 (1) _MPU6050_get_Az                                       9     5      4    1621
                                              6 BANK0      7     3      4
                       _MPU6050_read
                           ___xxtofl
 ---------------------------------------------------------------------------------
 (1) _MPU6050_get_Ay                                       9     5      4    1621
                                              6 BANK0      7     3      4
                       _MPU6050_read
                           ___xxtofl
 ---------------------------------------------------------------------------------
 (2) ___xxtofl                                            14    10      4     474
                                              3 COMMON     8     4      4
                                              0 BANK0      6     6      0
 ---------------------------------------------------------------------------------
 (1) _MPU6050_get_Ax                                       5     5      0    1147
                                              2 BANK0      3     3      0
                       _MPU6050_read
 ---------------------------------------------------------------------------------
 (2) _MPU6050_read                                         4     2      2    1100
                                              9 COMMON     2     0      2
                                              0 BANK0      2     2      0
                    _I2C_Master_Read
                   _I2C_Master_Start
                    _I2C_Master_Stop
                   _I2C_Master_Write
 ---------------------------------------------------------------------------------
 (3) _I2C_Master_Write                                     2     0      2     478
                                              3 COMMON     2     0      2
                    _I2C_Master_Wait
 ---------------------------------------------------------------------------------
 (3) _I2C_Master_Stop                                      0     0      0       0
                    _I2C_Master_Wait
 ---------------------------------------------------------------------------------
 (3) _I2C_Master_Start                                     0     0      0       0
                    _I2C_Master_Wait
 ---------------------------------------------------------------------------------
 (3) _I2C_Master_Read                                      6     4      2     121
                                              3 COMMON     6     4      2
                    _I2C_Master_Wait
 ---------------------------------------------------------------------------------
 (4) _I2C_Master_Wait                                      0     0      0       0
 ---------------------------------------------------------------------------------
 Estimated maximum stack depth 4
 ---------------------------------------------------------------------------------
 (Depth) Function   	        Calls       Base Space   Used Autos Params    Refs
 ---------------------------------------------------------------------------------
 (5) _isr                                                  3     3      0       0
                                              0 COMMON     3     3      0
                      _UART_get_char
 ---------------------------------------------------------------------------------
 (6) _UART_get_char                                        0     0      0       0
 ---------------------------------------------------------------------------------
 Estimated maximum stack depth 6
 ---------------------------------------------------------------------------------

 Call Graph Graphs:

 _main (ROOT)
   _MPU6050_get_Ax
     _MPU6050_read
       _I2C_Master_Read
         _I2C_Master_Wait
       _I2C_Master_Start
         _I2C_Master_Wait
       _I2C_Master_Stop
         _I2C_Master_Wait
       _I2C_Master_Write
         _I2C_Master_Wait
   _MPU6050_get_Ay
     _MPU6050_read
       _I2C_Master_Read
         _I2C_Master_Wait
       _I2C_Master_Start
         _I2C_Master_Wait
       _I2C_Master_Stop
         _I2C_Master_Wait
       _I2C_Master_Write
         _I2C_Master_Wait
     ___xxtofl
   _MPU6050_get_Az
     _MPU6050_read
       _I2C_Master_Read
         _I2C_Master_Wait
       _I2C_Master_Start
         _I2C_Master_Wait
       _I2C_Master_Stop
         _I2C_Master_Wait
       _I2C_Master_Write
         _I2C_Master_Wait
     ___xxtofl
   _MPU6050_init
     _MPU6050_write
       _I2C_Master_Start
         _I2C_Master_Wait
       _I2C_Master_Stop
         _I2C_Master_Wait
       _I2C_Master_Write
         _I2C_Master_Wait
   _UART_config
   _UART_send_char
   ___fltol
     _MPU6050_get_Ay (ARG)
       _MPU6050_read
         _I2C_Master_Read
           _I2C_Master_Wait
         _I2C_Master_Start
           _I2C_Master_Wait
         _I2C_Master_Stop
           _I2C_Master_Wait
         _I2C_Master_Write
           _I2C_Master_Wait
       ___xxtofl
     _MPU6050_get_Az (ARG)
       _MPU6050_read
         _I2C_Master_Read
           _I2C_Master_Wait
         _I2C_Master_Start
           _I2C_Master_Wait
         _I2C_Master_Stop
           _I2C_Master_Wait
         _I2C_Master_Write
           _I2C_Master_Wait
       ___xxtofl
   _setup
     _I2C_Master_Init
       ___lldiv

 _isr (ROOT)
   _UART_get_char

 Address spaces:
Name               Size   Autos  Total    Cost      Usage
BITCOMMON            E      0       0       0        0.0%
EEDATA             100      0       0       0        0.0%
NULL                 0      0       0       0        0.0%
CODE                 0      0       0       0        0.0%
COMMON               E      B       B       1       78.6%
BITSFR0              0      0       0       1        0.0%
SFR0                 0      0       0       1        0.0%
BITSFR1              0      0       0       2        0.0%
SFR1                 0      0       0       2        0.0%
STACK                0      0       0       2        0.0%
ABS                  0      0      2B       3        0.0%
BITBANK0            50      0       0       4        0.0%
BITSFR3              0      0       0       4        0.0%
SFR3                 0      0       0       4        0.0%
BANK0               50     1B      20       5       40.0%
BITSFR2              0      0       0       5        0.0%
SFR2                 0      0       0       5        0.0%
BITBANK1            50      0       0       6        0.0%
BANK1               50      0       0       7        0.0%
BITBANK3            60      0       0       8        0.0%
BANK3               60      0       0       9        0.0%
BITBANK2            60      0       0      10        0.0%
BANK2               60      0       0      11        0.0%
DATA                 0      0      2B      12        0.0%


Microchip Technology PIC Macro Assembler V2.31 build 20201012212115 
Symbol Table                                                                                   Wed Mar 10 22:02:10 2021

                       l77 004D                         l86 03C5                         l99 0487  
                       _Ax 003D                         _Ay 003F                         _Az 003E  
                      l102 0356                        l111 0433                        l200 0504  
                      l105 0317                        l114 03FC                        l108 04C7  
                      l143 038E                        l152 0520                        l161 050E  
                      l146 04EE                        l164 0459                        l149 04FA  
                      l165 045C                        l166 0461                        l158 0517  
                      l335 02C9                        l194 04A7                        l197 04FC  
                      l732 014E                        l492 024C                        l485 0261  
                      l734 01E5                        l495 0261                        l745 01AF  
                      l746 01BB                        l738 0193                        _GIE 005F  
                      u500 0288                        u501 0287                        u600 0177  
                      u520 02A3                        u601 0176                        u521 02A2  
                      u450 04F4                        u451 04F3                        u515 028A  
                      u460 04FA                        u620 0199                        u540 02C1  
                      u461 04F9                        u621 0198                        u541 02C0  
                      u525 029F                        u470 0455                        u550 036A  
                      u471 0454                        u615 018B                        u535 02B3  
                      u640 01A9                        u560 0132                        u720 0502  
                      u480 0274                        u641 01A8                        u561 0131  
                      u721 0501                        u481 0273                        u650 01AF  
                      u570 0136                        u810 0251                        u730 01F3  
                      u651 01AE                        u635 019E                        u571 0135  
                      u811 0250                        u731 01F2                        u555 0365  
                      u660 01B3                        u580 0156                        u820 0256  
                      u740 020A                        u661 01B2                        u581 0155  
                      u821 0255                        u805 0243                        u670 01C8  
                      u750 0220                        u751 021F                        u495 0279  
                      u680 01D8                        u760 0227                        u840 0031  
                      u681 01D7                        u761 0226                        u745 0205  
                      u841 0030                        u690 01DC                        u850 003B  
                      u691 01DB                        u675 01C3                        u595 0169  
                      u907 007C                        u851 003A                        u780 0239  
                      u860 0043                        u781 0238                        u917 0093  
                      u861 0042                        u790 0240                        u870 004B  
                      u791 023F                        u775 0229                        u927 00C2  
                      u871 004A                        u937 00D9                        u947 0108  
                      u957 011F                        u967 02DB                        u977 02F0  
                      u897 005B                        u987 0306                        _isr 04C8  
             ___fltol@exp1 0037                       l1111 04EE                       l1113 04F4  
                     l1121 050A                       l1201 0164                       l1131 0441  
                     l1115 0518                       l1123 050F                       l1211 019A  
                     l1203 0171                       l1133 044A                       l1117 051D  
                     l1125 0514                       l1221 01D3                       l1213 01A5  
                     l1205 0178                       l1301 021C                       l1135 044F  
                     l1127 0434                       l1119 0505                       l1223 01D8  
                     l1215 01A9                       l1207 017C                       l1303 0220  
                     l1311 023A                       l1151 0288                       l1143 0262  
                     l1137 0455                       l1129 0439                       l1225 01DC  
                     l1217 01B3                       l1209 018A                       l1321 0256  
                     l1161 02BB                       l1153 0291                       l1145 0274  
                     l1241 03B3                       l1139 045D                       l1227 01DD  
                     l1219 01BD                       l1251 02D7                       l1155 02A3  
                     l1147 0277                       l1163 02C1                       l1171 0387  
                     l1243 03C0                       l1331 0029                       l1181 0318  
                     l1253 02E0                       l1261 04A0                       l1317 0241  
                     l1309 0228                       l1157 02B1                       l1149 0284  
                     l1173 0388                       l1245 03C1                       l1333 0031  
                     l1183 0350                       l1191 0136                       l1255 02F5  
                     l1263 04A2                       l1271 0502                       l1319 0251  
                     l1159 02B2                       l1175 0389                       l1167 0357  
                     l1247 03C2                       l1239 038F                       l1351 004B  
                     l1343 003D                       l1335 0032                       l1273 04A8  
                     l1193 0146                       l1257 0302                       l1249 02CA  
                     l1265 04A3                       l1177 038A                       l1169 035A  
                     l1361 006C                       l1345 0043                       l1337 0035  
                     l1329 001A                       l1275 04C6                       l1195 0156  
                     l1187 012D                       l1283 03C6                       l1179 0462  
                     l1267 04A4                       l1259 0488                       l1371 009A  
                     l1363 006E                       l1339 003B                       l1355 004D  
                     l1189 0132                       l1269 04FC                       l1293 01FC  
                     l1381 00E0                       l1373 00B4                       l1365 0074  
                     l1357 0053                       l1349 0045                       l1199 015F  
                     l1279 03FD                       l1295 0211                       l1287 01E6  
                     l1383 00FA                       l1375 00BA                       l1367 0083  
                     l1359 0062                       l1297 0212                       l1289 01F3  
                     l1385 0100                       l1377 00C9                       l1369 008B  
                     l1299 021A                       l1387 010F                       l1379 00D1  
                     l1389 0117                       ?_isr 0070                       _PEIE 005E  
                     i1l68 04D9                       _TXIF 0064                       _main 001A  
                     btemp 007E                       start 000C     __size_of_MPU6050_write 0026  
                    ??_isr 0070           ?_I2C_Master_Init 0026           ?_I2C_Master_Read 0073  
         ?_I2C_Master_Wait 0070           ?_I2C_Master_Stop 0070              ___fltol@sign1 0036  
                    ?_main 0070            __end_of___fltol 0262                      _ANSEL 0188  
          __end_of___lldiv 02CA                      i1l210 04E8                      i1l213 04ED  
                    _RCREG 001A                      _SPBRG 0099                      _PORTA 0005  
                    _PORTB 0006                      _PORTC 0007                      _PORTD 0008  
                    _PORTE 0009                      u70_20 04E6                      u70_21 04E5  
                    u71_20 04EC                      u71_21 04EB                      _TRISA 0085  
                    _TRISB 0086                      _TRISC 0087                      _TRISD 0088  
                    _SSPIE 0463                      _TRISE 0089                      _SSPIF 0063  
                    u83_20 04CE                      u83_21 04CD                      _TXREG 0019  
                    _setup 038F              ?_MPU6050_init 0070              ?_MPU6050_read 0079  
  __size_of_MPU6050_get_Ax 0020    __size_of_MPU6050_get_Ay 0037    __size_of_MPU6050_get_Az 0037  
                    pclath 000A                      status 0003                      wtemp0 007E  
          __initialization 000F               __end_of_main 012A                     ??_main 0038  
            _MPU6050_write 0462          ?_I2C_Master_Start 0070          ?_I2C_Master_Write 0073  
       ??_I2C_Master_Start 0073         ??_I2C_Master_Write 0075             ??_MPU6050_init 0079  
           ??_MPU6050_read 007B                     ?_setup 0070                     _ANSELH 0189  
                   i1l1231 04E0                     i1l1233 04E6                     i1l1235 04EC  
                   i1l1323 04C8                     i1l1325 04CE                     i1l1327 04D8  
                   _SPBRGH 009A                     _SSPADD 0093                     _TRISC3 043B  
                   _TRISC4 043C                     _SSPCON 0014                     _SSPBUF 0013  
         __end_of___xxtofl 01E6               ?_UART_config 0070                  ??___fltol 0031  
                ??___lldiv 0020             ?_MPU6050_write 0075                     saved_w 007E  
             ___xxtofl@arg 0022               ___xxtofl@exp 0021               ___xxtofl@val 0073  
  __end_of__initialization 0016                 ___fltol@f1 002D             __pcstackCOMMON 0070  
            __end_of_setup 03C6      __end_of_UART_get_char 04EE             _MPU6050_get_Ax 04A8  
           _MPU6050_get_Ay 03FD             _MPU6050_get_Az 03C6     MPU6050_get_Ax@A_data_x 0023  
                  ??_setup 007B                 __pbssBANK0 003B     MPU6050_get_Ay@A_data_y 002B  
          MPU6050_read@add 0079     MPU6050_get_Az@A_data_z 002B                 __pmaintext 001A  
               __pintentry 0004       __end_of_MPU6050_init 0318       __end_of_MPU6050_read 0357  
          ??_MPU6050_write 0079                  ?___xxtofl 0073     __end_of_MPU6050_get_Ax 04C8  
   __end_of_MPU6050_get_Ay 0434     __end_of_MPU6050_get_Az 03FD    __size_of_UART_send_char 000A  
                  _SSPCON2 0091                    _SSPSTAT 0094                    ___fltol 01E6  
                  ___lldiv 0262       __size_of_UART_config 0020                    __ptext1 038F  
                  __ptext2 0357                    __ptext3 0262                    __ptext4 01E6  
                  __ptext5 04FB                    __ptext6 0488                    __ptext7 02CA  
                  __ptext8 0462                    __ptext9 03C6               __size_of_isr 0018  
               ??___xxtofl 0077          MPU6050_write@data 0077   __size_of_I2C_Master_Init 0038  
          ?_MPU6050_get_Ax 0070            ?_MPU6050_get_Ay 0026            ?_MPU6050_get_Az 0026  
 __size_of_I2C_Master_Read 002E                    _valorRX 003B   __size_of_I2C_Master_Wait 000D  
 __size_of_I2C_Master_Stop 0009       end_of_initialization 0016  __size_of_I2C_Master_Start 0009  
__size_of_I2C_Master_Write 000A            ___lldiv@divisor 0073            ___lldiv@counter 0025  
                _RCSTAbits 0018           I2C_Master_Init@c 0026           I2C_Master_Read@a 0073  
                _PORTCbits 0007              ___xxtofl@sign 0020                  _TRISCbits 0087  
                _TXSTAbits 0098      __size_of_MPU6050_init 004E      __size_of_MPU6050_read 003F  
              _BAUDCTLbits 0187        start_initialization 000F             _UART_send_char 04FB  
              __end_of_isr 04E0               _MPU6050_init 02CA               _MPU6050_read 0318  
        ??_I2C_Master_Init 002A          ??_I2C_Master_Read 0075          ??_I2C_Master_Wait 0073  
        ??_I2C_Master_Stop 0073         MPU6050_read@retval 0020     __end_of_UART_send_char 0505  
                ___latbits 0002              __pcstackBANK0 0020          __size_of___xxtofl 00BC  
         _I2C_Master_Start 0518           _I2C_Master_Write 0505     __size_of_UART_get_char 000E  
                 ?___fltol 002D                   ?___lldiv 0073           UART_send_char@bt 0073  
         ??_MPU6050_get_Ax 0022           ??_MPU6050_get_Ay 002A           ??_MPU6050_get_Az 002A  
    __end_of_MPU6050_write 0488            ?_UART_send_char 0070             __size_of_setup 0037  
         MPU6050_write@add 0075          interrupt_function 0004                   _PIE1bits 008C  
                 _PIR1bits 000C              ??_UART_config 0073              _UART_get_char 04E0  
      I2C_Master_Read@temp 0077           __size_of___fltol 007C           __size_of___lldiv 0068  
      __end_of_UART_config 04A8             ?_UART_get_char 0070            _I2C_Master_Init 0357  
          _I2C_Master_Read 0434                   ___xxtofl 012A            _I2C_Master_Wait 04EE  
          _I2C_Master_Stop 050F                   __ptext10 03FD                   __ptext11 012A  
                 __ptext20 04E0                   __ptext12 04A8                   __ptext13 0318  
                 __ptext14 0505                   __ptext15 050F                   __ptext16 0518  
                 __ptext17 0434                   __ptext18 04EE                   __ptext19 04C8  
                 _contador 003C              __size_of_main 0110   __end_of_I2C_Master_Start 0521  
 __end_of_I2C_Master_Write 050F                 _INTCONbits 000B                   intlevel1 0000  
         ___lldiv@dividend 0077                _UART_config 0488           ??_UART_send_char 0073  
  __end_of_I2C_Master_Init 038F    __end_of_I2C_Master_Read 0462    __end_of_I2C_Master_Wait 04FB  
  __end_of_I2C_Master_Stop 0518            ??_UART_get_char 0070           ___lldiv@quotient 0021  
        I2C_Master_Write@d 0073                _SSPCON2bits 0091  
